
 Start  Stop   Length Name                   Class
 00000H 09809H 0980AH _TEXT                  CODE 16-bit
               at offset 00000H 022B3H bytes from bcode.obj (bcode.asm)
               at offset 022B4H 00895H bytes from crx.lib (memory.asm)
               at offset 02B4AH 01188H bytes from crx.lib (msg.asm)
               at offset 03CD2H 00694H bytes from crx.lib (tokens.asm)
               at offset 04366H 00D98H bytes from crx.lib (syntax.asm)
               at offset 050FEH 01001H bytes from crx.lib (pcode.asm)
               at offset 06100H 021F4H bytes from execute.obj (execute.asm)
               at offset 082F4H 00E73H bytes from bifs.obj (bifs.asm)
               at offset 09168H 00151H bytes from command.obj (command.asm)
               at offset 092BAH 00550H bytes from main.obj (main.asm)

 0980AH 09857H 0004EH FanSegB                CODE 16-bit
               at offset 00000H 0004EH bytes from bcode.obj (bcode.asm)

 09858H 098E3H 0008CH BifSeg                 CODE 16-bit
               at offset 00000H 0003CH bytes from bcode.obj (bcode.asm)
               at offset 0003CH 00050H bytes from bifs.obj (bifs.asm)

 098E4H 099A7H 000C4H FanSeg                 CODE 16-bit
               at offset 00000H 000C4H bytes from execute.obj (execute.asm)

 099A8H 099A8H 00000H _DATA                  DATA 16-bit
 099B0H 09DAFH 00400H STACK                  STACK 16-bit
               at offset 00000H 00400H bytes from main.obj (main.asm)


 Origin   Group
 099A:0   DGROUP
 0000:0   MyGroup

  Address         Publics by Name

 0000:4D52       $CondKeys
 0000:4BCE       $DoKeys
 0000:4DB9       $ThenKey
 0000:4DA2       $WithKey
 0000:63F3       Abut$$
 0000:5814       Action0
 0000:5979       Action1
 0000:5A86       Action10
 0000:5A7E       Action11
 0000:5A9C       Action12
 0000:5AF8       Action18
 0000:5A30       Action2
 0000:5B02       Action20
 0000:5BA6       Action21
 0000:5BF1       Action22
 0000:5C31       Action23
 0000:5C5A       Action24
 0000:5C7B       Action25
 0000:5CB2       Action26
 0000:5CC5       Action28
 0000:5CD6       Action29
 0000:5A73       Action3
 0000:5D58       Action30
 0000:5D59       Action31
 0000:5D79       Action32
 0000:5D95       Action33
 0000:5E0E       Action34
 0000:5E13       Action35
 0000:5D95       Action36
 0000:5E1F       Action37
 0000:5E38       Action381
 0000:5E3D       Action382
 0000:5E42       Action383
 0000:5E47       Action41
 0000:5E54       Action43
 0000:5E72       Action44
 0000:5E75       Action45
 0000:5EDA       Action50
 0000:5ED6       Action51
 0000:5ED6       Action52
 0000:5F16       Action53
 0000:5F9C       Action55
 0000:5FA8       Action56
 0000:5FAD       Action57
 0000:5FB1       Action58
 0000:5A78       Action6
 0000:5FD0       Action60
 0000:5FF6       Action61
 0000:6002       Action62
 0000:601E       Action70
 0000:6029       Action71
 0000:603C       Action72
 0000:604A       Action73
 0000:604E       Action74
 0000:6053       Action75
 0000:6058       Action80
 0000:608A       Action90
 0000:608F       Action91
 0000:71D7       AddRegs
 0000:927C       Address$$
 0000:856A       AfterCheck
 0000:2373       AllocateCx_EsAx
 0000:1808       ARITHOP$$
 0000:7B1A       AssignExposed
 0000:4325       AssureSiPlus
 0000:43F8       Attributes
 0000:7C7F       Away
 0000:826C       AwayEsAxCx
 0000:96C5       Ax2DsSiCx
 0000:0DF5       B4DROP
 0000:0E00       B4EXPOSE
 0000:0DD7       B4VALUE1
 0000:0DDB       B4VALUE2
 0000:200C       Bassign
 0000:84E4       Bif$$
 0000:07AF       BifB2X
 0000:07BF       BifBITAND
 0000:07BF       BifBITOR
 0000:07BF       BifBITXOR
 0000:112C       BifBound
 0000:0855       BifC2D
 0000:0922       BifC2X
 0000:00C8       BifCHANGESTR
 0000:8CB3       BifCHARIN
 0000:8CB8       BifCHAROUT
 0000:0136       BifCOUNTSTR
 0000:08BF       BifD2C
 0000:0937       BifD2X
 0000:84C6       BifGroup$$
 0000:0068       BifMAX
 0000:0054       BifMIN
 0000:8F96       BifNames
 0000:8588       Bifq$$
 0000:8F84       Bifs
 0000:8CC0       BifSTREAM
 0000:097E       BifX2B
 0000:098A       BifX2C
 0000:09AA       BifX2D
 0000:61A2       Boolery
 0000:002D  Abs  BooleryRejumps
 0000:9858       Bswitch
 0000:9699       ClauseSourceEnd
 0000:1456       CloseBx
 0000:6DC2       Command
 0000:91AF       Command$$
 0000:0F73       COMMANDWRAP
 0000:6BF2       CompareTO
 0000:935C       Compiler
 0000:4E0F       Compiling
 0000:78D2       CONFIG_RAISE40$$
 0000:112C       CONFIG_UPPER$$
 0000:96FF       Consist
 0000:5435       ConstValue
 0000:543D       ConstValueX
 0000:767D       DigitsChange
 0000:62E0       DotsExposed
 0000:61CF       DotsFsBxDsSi
 0000:61E3       DotsFsBxDsSiX
 0000:9405       DualSwitch
 0000:9168       EnvName$$
 0000:70F6       Exit
 0000:7102       ExitDOS
 0000:7B34       ExposedFs
 0000:231D       GiveDosMem
 0000:8279       HeritageDi
 0000:22B4       InitMemory
 0000:23C6       InitSegDs
 0000:7D48       Interpret1
 0000:4BDC       Keys
 0000:8F6D       Length$$
 0000:0F65       LINESPLIT
 0000:20B5       LinkBcode
 0000:20B8       LinkBcodeX
 0000:125E       LookFileDsBx
 0000:51C9       Lookup
 0000:39B8       MakeMsg
 0000:87C2       Max$$
 0000:87C4       Min$$
 0000:244E       MoreSpaceEs
 0000:2065       Name2File
 0000:3CD2       NextToken
 0000:6331       NotPresent
 0000:7EAC       NumDxBx
 0000:2135       One$$
 0000:5646       OpFlags
 0000:24B6       ParaAllocAx
 0000:0E5F       PATHQUALIFY
 0000:579F       Pcode1
 0000:5756       Pcode2
 0000:82F4       PcodeBif
 0000:5565       PcodeOp
 0000:98E4       PcodesBase$
 0000:5035       QueryKey
 0000:7903       Raise
 0000:789B       Raise26p5
 0000:789A       Raise26p6
 0000:78B1       Raise33p1
 0000:78B0       Raise33p2
 0000:78AF       Raise33p3
 0000:78B7       Raise34p5
 0000:78B6       Raise34p6
 0000:7901       Raise40
 0000:78C1       Raise40p11
 0000:78C5       Raise40p32
 0000:78C9       Raise40p33
 0000:78CD       Raise49
 0000:23B2       Raise5p1
 0000:23C2       Raise5p1d
 0000:6175       Rejumps
 0000:8258       ResultSpace
 0000:20ED       ResumeP$
 0000:1161       RetEsSi
 0000:574C       Scode
 0000:2501       Serialize
 0000:7693       SetInherit
 0000:23EF       SetStack
 0000:3EFB       SetSymLenJa
 0000:3C99       ShowMsg
 0000:23F2       StackSafe
 0000:93CD       StartExecution
 0000:93D3       StartExecutionY
 0000:74F2       StrictFlags
 0000:2144       String1$$
 0000:8E01       SymbolLook
 0000:4314       SymbolsSafe
 0000:39F5       TargetMsg
 0000:60B8       Terminate
 0000:7AB0       Then$$
 0000:80A1       ToDsSiCx
 0000:8025       ToWholeEbx
 0000:8C9B       Trace$$
 0000:954D       TraceEvent$$
 0000:9564       TraceEventX
 0000:5548       UpperFirstAh
 0000:23E9       UpStack
 0000:6619       VasDsSiCx
 0000:610D       XCycle
 0000:212A       Zero$$
 0000:76B6       ZoneNumerics
 0000:6EC3       ZoneToLevel
 0000:7545       _Eq$$
 0000:7545       _Ge$$
 0000:7545       _Gt$$
 0000:7545       _Le$$
 0000:7545       _Lt$$
 0000:7545       _Ne$$
 0000:7562       _Seq$$
 0000:7562       _Slt$$
 0000:7562       _Sne$$

  Address         Publics by Value

 0000:002D  Abs  BooleryRejumps
 0000:0054       BifMIN
 0000:0068       BifMAX
 0000:00C8       BifCHANGESTR
 0000:0136       BifCOUNTSTR
 0000:07AF       BifB2X
 0000:07BF       BifBITAND
 0000:07BF       BifBITXOR
 0000:07BF       BifBITOR
 0000:0855       BifC2D
 0000:08BF       BifD2C
 0000:0922       BifC2X
 0000:0937       BifD2X
 0000:097E       BifX2B
 0000:098A       BifX2C
 0000:09AA       BifX2D
 0000:0DD7       B4VALUE1
 0000:0DDB       B4VALUE2
 0000:0DF5       B4DROP
 0000:0E00       B4EXPOSE
 0000:0E5F       PATHQUALIFY
 0000:0F65       LINESPLIT
 0000:0F73       COMMANDWRAP
 0000:112C       CONFIG_UPPER$$
 0000:112C       BifBound
 0000:1161       RetEsSi
 0000:125E       LookFileDsBx
 0000:1456       CloseBx
 0000:1808       ARITHOP$$
 0000:200C       Bassign
 0000:2065       Name2File
 0000:20B5       LinkBcode
 0000:20B8       LinkBcodeX
 0000:20ED       ResumeP$
 0000:212A       Zero$$
 0000:2135       One$$
 0000:2144       String1$$
 0000:22B4       InitMemory
 0000:231D       GiveDosMem
 0000:2373       AllocateCx_EsAx
 0000:23B2       Raise5p1
 0000:23C2       Raise5p1d
 0000:23C6       InitSegDs
 0000:23E9       UpStack
 0000:23EF       SetStack
 0000:23F2       StackSafe
 0000:244E       MoreSpaceEs
 0000:24B6       ParaAllocAx
 0000:2501       Serialize
 0000:39B8       MakeMsg
 0000:39F5       TargetMsg
 0000:3C99       ShowMsg
 0000:3CD2       NextToken
 0000:3EFB       SetSymLenJa
 0000:4314       SymbolsSafe
 0000:4325       AssureSiPlus
 0000:43F8       Attributes
 0000:4BCE       $DoKeys
 0000:4BDC       Keys
 0000:4D52       $CondKeys
 0000:4DA2       $WithKey
 0000:4DB9       $ThenKey
 0000:4E0F       Compiling
 0000:5035       QueryKey
 0000:51C9       Lookup
 0000:5435       ConstValue
 0000:543D       ConstValueX
 0000:5548       UpperFirstAh
 0000:5565       PcodeOp
 0000:5646       OpFlags
 0000:574C       Scode
 0000:5756       Pcode2
 0000:579F       Pcode1
 0000:5814       Action0
 0000:5979       Action1
 0000:5A30       Action2
 0000:5A73       Action3
 0000:5A78       Action6
 0000:5A7E       Action11
 0000:5A86       Action10
 0000:5A9C       Action12
 0000:5AF8       Action18
 0000:5B02       Action20
 0000:5BA6       Action21
 0000:5BF1       Action22
 0000:5C31       Action23
 0000:5C5A       Action24
 0000:5C7B       Action25
 0000:5CB2       Action26
 0000:5CC5       Action28
 0000:5CD6       Action29
 0000:5D58       Action30
 0000:5D59       Action31
 0000:5D79       Action32
 0000:5D95       Action33
 0000:5D95       Action36
 0000:5E0E       Action34
 0000:5E13       Action35
 0000:5E1F       Action37
 0000:5E38       Action381
 0000:5E3D       Action382
 0000:5E42       Action383
 0000:5E47       Action41
 0000:5E54       Action43
 0000:5E72       Action44
 0000:5E75       Action45
 0000:5ED6       Action52
 0000:5ED6       Action51
 0000:5EDA       Action50
 0000:5F16       Action53
 0000:5F9C       Action55
 0000:5FA8       Action56
 0000:5FAD       Action57
 0000:5FB1       Action58
 0000:5FD0       Action60
 0000:5FF6       Action61
 0000:6002       Action62
 0000:601E       Action70
 0000:6029       Action71
 0000:603C       Action72
 0000:604A       Action73
 0000:604E       Action74
 0000:6053       Action75
 0000:6058       Action80
 0000:608A       Action90
 0000:608F       Action91
 0000:60B8       Terminate
 0000:610D       XCycle
 0000:6175       Rejumps
 0000:61A2       Boolery
 0000:61CF       DotsFsBxDsSi
 0000:61E3       DotsFsBxDsSiX
 0000:62E0       DotsExposed
 0000:6331       NotPresent
 0000:63F3       Abut$$
 0000:6619       VasDsSiCx
 0000:6BF2       CompareTO
 0000:6DC2       Command
 0000:6EC3       ZoneToLevel
 0000:70F6       Exit
 0000:7102       ExitDOS
 0000:71D7       AddRegs
 0000:74F2       StrictFlags
 0000:7545       _Lt$$
 0000:7545       _Eq$$
 0000:7545       _Ge$$
 0000:7545       _Gt$$
 0000:7545       _Ne$$
 0000:7545       _Le$$
 0000:7562       _Sne$$
 0000:7562       _Seq$$
 0000:7562       _Slt$$
 0000:767D       DigitsChange
 0000:7693       SetInherit
 0000:76B6       ZoneNumerics
 0000:789A       Raise26p6
 0000:789B       Raise26p5
 0000:78AF       Raise33p3
 0000:78B0       Raise33p2
 0000:78B1       Raise33p1
 0000:78B6       Raise34p6
 0000:78B7       Raise34p5
 0000:78C1       Raise40p11
 0000:78C5       Raise40p32
 0000:78C9       Raise40p33
 0000:78CD       Raise49
 0000:78D2       CONFIG_RAISE40$$
 0000:7901       Raise40
 0000:7903       Raise
 0000:7AB0       Then$$
 0000:7B1A       AssignExposed
 0000:7B34       ExposedFs
 0000:7C7F       Away
 0000:7D48       Interpret1
 0000:7EAC       NumDxBx
 0000:8025       ToWholeEbx
 0000:80A1       ToDsSiCx
 0000:8258       ResultSpace
 0000:826C       AwayEsAxCx
 0000:8279       HeritageDi
 0000:82F4       PcodeBif
 0000:84C6       BifGroup$$
 0000:84E4       Bif$$
 0000:856A       AfterCheck
 0000:8588       Bifq$$
 0000:87C2       Max$$
 0000:87C4       Min$$
 0000:8C9B       Trace$$
 0000:8CB3       BifCHARIN
 0000:8CB8       BifCHAROUT
 0000:8CC0       BifSTREAM
 0000:8E01       SymbolLook
 0000:8F6D       Length$$
 0000:8F84       Bifs
 0000:8F96       BifNames
 0000:9168       EnvName$$
 0000:91AF       Command$$
 0000:927C       Address$$
 0000:935C       Compiler
 0000:93CD       StartExecution
 0000:93D3       StartExecutionY
 0000:9405       DualSwitch
 0000:954D       TraceEvent$$
 0000:9564       TraceEventX
 0000:9699       ClauseSourceEnd
 0000:96C5       Ax2DsSiCx
 0000:96FF       Consist
 0000:9858       Bswitch
 0000:98E4       PcodesBase$

Program entry point at 0000:92BA
