Microsoft (R) Macro Assembler Version 6.11		    01/29/12 12:07:10
main.asm						     Page 1 - 1


				     ;;Copyright Formcroft Ltd 1997
				     ; The .model directives didn't seem to have a way to get PARA alignment,
				     ; so SEGMENT directives are better but CodeView confused by those.
				      .model small
				      .486
 0000				      .code
				      option nokeyword:<C>
				     ;------------------------------------------------------------------------------
				     ; Module main has the entry point and initializing for the processing.
				     ;------------------------------------------------------------------------------
				      PUBLIC TraceEvent$$
				      PUBLIC TraceEventX

				      EXTERN ExitDOS:near
				      EXTERN Raise34p5:near
				      EXTERN Raise34p6:near
				      EXTERN Raise33p1:near
				      EXTERN Raise33p2:near
				      EXTERN Raise33p3:near
				      EXTERN Raise26p5:near
				      EXTERN Raise26p6:near
				      EXTERN AfterCheck:near
				      EXTERN PcodeBif:near
				      EXTERN Bswitch:near
				      EXTERN ARITHOP$$:near
				      EXTERN LINESPLIT:near
				      EXTERN Bassign:near
				      EXTERN TargetMsg:near
				      EXTERN Interpret1:near
				     ;------------------------------------------------------------------------------
				     ; Literal and numeric replacements
				     ;------------------------------------------------------------------------------
 = textequ			     is textequ <textequ>
 = byte ptr			     Bptr  is <byte ptr>
 = word ptr			     Wptr  is <word ptr>
 = dword ptr			     Dptr  is <dword ptr>
 = jmp $			     Hang  is <jmp $>
 = 0dh				     $Cr   is <0dh>
 = 0ah				     $Lf   is <0ah>
 = 1ah				     $Eof  is <1ah>
 = 0 dup(?)			     Overlay is <0 dup(?)>
 = .erre			     Assert is <.erre>
				     ;------------------------------------------------------------------------------
				     ; Typedefs. MASMs pointers are offsets in a segment.
				     ; Some of this is to indicate the purpose to the reader rather than MASM,
				     ; ie CHAR v BYTE since both are unsigned 8 bits.
				     ; However, pointerness is worth saying for words containing offsets since
				     ; debugger will take note.
				     ; WORD will tend not to get used since a word is either an integer (USHORT)
				     ; or an offset.
				     ; I haven't yet found the penalty in giving up SHORT as a keyword so as to
				     ; use it in the 'C' sense.
				     ;------------------------------------------------------------------------------
				       option nokeyword:<short>
				       option nokeyword:<C>
				     ; One byte target:
				     char   typedef byte
				     Bool   typedef byte
				     bytep  typedef ptr byte
				     charp  typedef ptr byte
				     charfp  typedef far ptr byte
				     Boolp  typedef ptr byte
				     ; Two byte
				     Ushort typedef word
				     Ushortp typedef ptr word
				     short typedef sword
				     shortp typedef ptr sword
				     Handle typedef word
				     Handlep typedef ptr word
				     Segp typedef word; Slightly different sense.
				     ; Four byte
				     Ulong typedef dword
 0004				     Farp struc; For les,lds
 0000  0000			      Pt charp 0
 0002  0000			      Sg Segp 0
				     Farp ends

				     ;------------------------------------------------------------------------------
				     ; Macros
				     ;------------------------------------------------------------------------------

				     MkMajMin macro Maj:req, Min:req
				      
; Makes parts of msg number into one number.
				      exitm %(256*Maj+Min)
				     endm

				     StringOrder macro a:req, b:req, c, d
				      
; Load so that a store puts them in the written order.
				      ifnb <d>
				       exitm %(256*256*256*(d)+256*256*(c)+256*(b)+(a))
				      endif
				      exitm %(256*(b)+(a))
				     endm

				     ; Splat makes a visual 'noise' on the output.
				     Splat macro It:=<'*'>
				      mov dl,It
				      mov ah,02h
				      int 21h
				     endm

				     LoopQ macro tgt:req
				     
; Faster than single loop instruction
				       dec cx
				       jnz tgt
				     endm

				     JcxzQ macro tgt:req
				     
; jcxz is written only where retaining flags matters, else JcxzQ
				     
; JcxzQ can be rendered in way that can do long jump. (And maybe faster)
				       test cx,cx
				       je tgt
				     endm

				     Pos macro Needle:req, Hay:req
				      exitm % @InStr(1,Hay,Needle)
				     endm

				     ; As provided in MASM readme, plus fixing:
				      la macro Dest:req, Symbol:req
				     ; This can go wrong because replacement in operand occurs later.
				     ; Page 583 of Waite suggests we can test this but...
				      if (opattr(Symbol)) and 20h
				        if (opattr(Symbol)) and 08h
				          mov Dest, offset Symbol
				        else
				          lea Dest, Symbol
				        endif
				      else
				        ; Assume MOV if errors
				        mov Dest, offset Symbol
				      endif
				      endm

				     ; Having bp=0 makes a difference to zeroing.
				     ; XOR is no better than MOV of 0, and disturbs flags so this is just shorthand.
				     ; XOR faster than MOV of 0 on some machines?
				     ; Actually XOR is better for accum, but macro can't distinquish accum.
				     ; If Ax is positive CWD is better for DX, but macro doesn't do that.
				      z macro Dest:req
				     ; Drop this bit because XOR never better than register move.
				          if (type Dest) eq 1
				            mov Dest,0
				          else
				            if (type Dest) eq 2
				              mov Dest,bp
				            else
				              if (type Dest) eq 4
				                mov Dest,ebp
				              else
				                Whoops
				              endif
				            endif
				          endif
				      endm

				     ; Illuminate special use of test to set flags.
				     TestReg macro arg:req
				            test arg,arg
				     endm

				     ; Illuminate pop that discards.
				     PopJunk  macro arg:req
				       pop arg
				     endm

				     ; Setting bits in records.
				     ; I'm having trouble with MASM. If arg is complicated, it uses two byte
				     ; offsets where one would do. (Cured by overlay of word on record)
				     ; I cannot get MASM to put what I want on the listing. I would like the
				     ; values computed to show in the listed expansion but MASM will only show
				     ; the macro variable names there.  A % at the beginning of the line returned
				     ; by the macro does nothing. A % before the macro variable name in it is seen
				     ; as a syntax error. Short of conditional generation returning lines with
				     ; only the macro arguments in (these do get replaced on the listing), I don't
				     ; see a solution.

				     On      macro arg:req, flg:req, flg2, flg3, flg4
				       local masksum
				       ifnb <flg4>
				         Need to elaborate
				       endif
				       masksum = mask flg
				       ifnb <flg2>
				         masksum=masksum + mask flg2
				       endif
				       ifnb <flg3>
				         masksum=masksum + mask flg3
				       endif
				       if ((type arg) ne 2) or (low masksum ne 0 and high masksum ne 0)
				             or  arg,masksum
				       else
				         if masksum gt 255
				             or  Bptr(arg+1), high masksum
				         else
				             or  Bptr(arg), low masksum
				         endif
				       endif
				     endm
				     Off     macro arg:req, flg:req, flg2, flg3, flg4
				       local masksum
				       ifnb <flg4>
				         Need to elaborate
				       endif
				       masksum = mask flg
				       ifnb <flg2>
				         masksum=masksum + mask flg2
				       endif
				       ifnb <flg3>
				         masksum=masksum + mask flg3
				       endif
				       if ((type arg) ne 2) or (low masksum ne 0 and high masksum ne 0)
				             and arg, not masksum
				       else
				         if masksum gt 255
				             and Bptr(arg+1), high not masksum
				         else
				             and Bptr(arg), low not masksum
				         endif
				       endif
				     endm
				     Qry     macro arg:req, flg:req, flg2, flg3, flg4
				       local masksum
				       ifnb <flg4>
				         Need to elaborate
				       endif
				       masksum = mask flg
				       ifnb <flg2>
				         masksum=masksum + mask flg2
				       endif
				       ifnb <flg3>
				         masksum=masksum + mask flg3
				       endif
				       if ((type arg) ne 2) or (low masksum ne 0 and high masksum ne 0)
				             test arg, masksum
				       else
				         if masksum gt 255
				           if @SizeStr("&arg") gt 4
				             test Bptr(arg+1), high masksum
				           else
				             if "cx" ne "&arg"
				               test Bptr(arg+1), high masksum
				             else
				               test ch, high masksum
				             endif
				           endif
				         else
				             test Bptr(arg), low masksum
				         endif
				       endif
				     endm

				     mv   macro To:req,From:req
				     ; Used for segment moves
				      push From
				      pop To
				     endm

				     xax macro To:req
				     ; Used for ax moves when xchg saves a byte. (At expense of cycles)
				     ; Don't use xax form if exchange is "real" exchange.
				      if (type To) eq 2
				        xchg ax,To
				      else
				        xchg eax,To
				      endif
				     endm

				     inc2 macro Subj:req
				     ; Shorter than add Subj,2 when non-acc 16 bit reg.
				      inc Subj
				      inc Subj
				     endm

				     dec2 macro Subj:req
				     ; Shorter than dec Subj,2 when non-acc 16 bit reg.
				      dec Subj
				      dec Subj
				     endm

				     top macro To:req
				     ; Top element of hardware stack without disturbing it.
				      pop To
				      push To
				     endm

				     move macro To:req,From:req,Via
				     ; Memory to memory with arguments in same order as a mov.
				      ifb <Via>
				       if (type To) eq 2
				         mov ax,From
				         mov To,ax
				       elseif (type To) eq 1
				         mov al,From
				         mov To,al
				       else
				         mov eax,From
				         mov To,eax
				       endif
				      else
				       mov Via,From
				       mov To,Via
				      endif
				     endm

				     ;------------------------------------------------------------------------------
				     ; Shapes of structures for based addressing.
				     ;------------------------------------------------------------------------------
				     ; If we PUSHA and then copy SP to BP the caller's
				     ; registers have become locals accessible on [BP].
				     ; Structure PushShape holds the shape for this.
 0010				     PushShape struct
 0000  0000			      di_ word ?
 0002  0000			      si_ word ?
 0004  0000			      bp_ word ?
 0006  0000			      sp_ word ?
 0008	    0000 [		      bx_ word Overlay
	     0000
	    ]
 0008  00			      bl_ byte ?
 0009  00			      bh_ byte ?
 000A	    0000 [		      dx_ word Overlay
	     0000
	    ]
 000A  00			      dl_ byte ?
 000B  00			      dh_ byte ?
 000C	    0000 [		      cx_ word Overlay
	     0000
	    ]
 000C  00			      cl_ byte ?
 000D  00			      ch_ byte ?
 000E	    0000 [		      ax_ word Overlay
	     0000
	    ]
 000E  00			      al_ byte ?
 000F  00			      ah_ byte ?
				     PushShape ends
				     ; Build characteristics:
 = 0000				      CD equ 0; On when dump of compaction activity needed. See CD.REXX
 = 0000				      Debug equ 0; On for normal checks detecting internal flaws early.
 = 0000				      MemCheck equ 0; On for DOS memory checks.
 = 0000				      ForBcode equ 0; When making code that will be turned to BCode.
 = 0000				      ForBig equ 0; When making code that will be turned into one big assembly.
 = 0001				      SortSpaceSS equ 1; Design has compaction list under SS.
 = 0000				      Trial equ 0; Design change experiment.
 = 0001				      Solid equ 1; Always 1, used to mark sensitive areas for ForBig technology.
				     ;(Solid section with following label is assumed not to fall through.)
				     if ForBig
				      endif
				     if Debug
				     endif
				      EXTERNDEF ToWholeEbx:near; Converts from Rexx variable to integer in EBX.
				      EXTERNDEF Zero$$:near; Puts zero on the stack.
				      EXTERNDEF Then$$:near; Execution of THEN
				      EXTERNDEF DigitsChange:near; Called at places where Digits() setting may change.
				      EXTERNDEF ZoneNumerics:near; Updates Zone for fast access to numeric settings.
				      EXTERNDEF SetInherit:near; Inherit, for an external routine.
				      EXTERNDEF Compiling:near; To start compiling something.
				      EXTERNDEF Compiler:near; To start compiling something.
				      EXTERNDEF StartExecution:near; To start executing made Pcode.
				      EXTERNDEF StartExecutionY:near; To start executing made Pcode.
				      EXTERNDEF ResumeP$:near; To start executing Pcode after Bcode.
				      EXTERNDEF Command:near; To start compiling source named on a command.
				      EXTERNDEF AssureSiPlus:near
				      EXTERNDEF AssignExposed:near
				      EXTERNDEF Name2File:near
				      EXTERNDEF ZoneToLevel:near
				      EXTERNDEF BifBound:near; A place separating code on basis of address
				      EXTERNDEF ConstValue:near
				      EXTERNDEF ConstValueX:near
				      EXTERNDEF Terminate:near
				      EXTERNDEF UpperFirstAh:near
				      EXTERNDEF NotPresent:near
				      EXTERNDEF Consist:near
				      EXTERNDEF Serialize:near
				      EXTERNDEF RetEsSi:near
				      EXTERNDEF ExposedFs:near, DotsExposed:near
				     ; Make the memory services available to all modules.
				      EXTERNDEF InitMemory:near, AllocateCx_EsAx:near, InitSegDs:near
				      EXTERNDEF MoreSpaceEs:near,GiveDosMem:near
				      EXTERNDEF ParaAllocAx:near, Raise5p1:near, Raise5p1d:near
				      EXTERNDEF StackSafe:near, SetStack:near, UpStack:near
				     ; Most modules need to load values from Rexx variables to registers.
				      EXTERNDEF ToDsSiCx:near, NumDxBx:near
				     ; Many modules create pseudo-code, test operator attributes..
				      EXTERNDEF Scode:near, Pcode1:near, Pcode2:near, PcodeArg:near
				      EXTERNDEF PcodeGapBx:near, PcodeOp:near, OpFlags:near
				     ; Lookup things may be needed in execution, eg for DROP (abc)
				      EXTERNDEF Lookup:near,SymbolsSafe:near,SetSymLenJa:near,SymbolLook:near
				      EXTERNDEF VasDsSiCx:near
				     ; And a few more in common use.
				      EXTERNDEF Ax2DsSiCx:near,HeritageDi:near, Raise:near
				      EXTERNDEF Attributes:near; Table for uppercasing, etc.
				      EXTERNDEF ResultSpace:near, AwayEsAxCx:near
				      EXTERNDEF LinkBcode:near, LinkBcodeX:near
				      EXTERNDEF CONFIG_UPPER$$:near
				      EXTERNDEF CONFIG_RAISE40$$:near
				      EXTERNDEF PcodesBase$:near
				      EXTERNDEF DotsFsBxDsSi:near
				      EXTERNDEF DotsFsBxDsSiX:near
				      EXTERNDEF XCycle:near,Rejumps:near,Boolery:near,BooleryRejumps:abs
				      EXTERNDEF LookFileDsBx:near
				      EXTERNDEF Away:near
				      EXTERNDEF ClauseSourceEnd:near
				      EXTERNDEF DualSwitch:near
				     if Debug
				     endif

 = 0001				     $PcodesBase equ 01h
 = 005D				     $BPcodesCeil equ 05Dh
 = 00C5				     $PcodesCeil equ 0C5h
 = 0057				     $PjumpBase equ 057h
 = 0089				     $PjumpCeil equ 089h
 = 0001				     $pAbut equ 01h
 = 0003				     $pCat equ 03h
 = 0005				     $pNop equ 05h
 = 0007				     $pAssignDotsP equ 07h
 = 0009				     $pParse equ 09h
 = 000B				     $pResumeParse equ 0Bh
 = 000D				     $pNumber equ 0Dh
 = 000F				     $pTo equ 0Fh
 = 0011				     $pBy equ 011h
 = 0013				     $pFor equ 013h
 = 0015				     $pWhile equ 015h
 = 0017				     $pUntil equ 017h
 = 0019				     $pIterRep equ 019h
 = 001B				     $pIterate equ 01Bh
 = 001D				     $pLeave equ 01Dh
 = 001F				     $pUnDo equ 01Fh
 = 0021				     $pResult equ 021h
 = 0023				     $pReturn equ 023h
 = 0025				     $pReturns equ 025h
 = 0027				     $pExit equ 027h
 = 0029				     $pSay equ 029h
 = 002B				     $pBifq equ 02Bh
 = 002D				     $pLength equ 02Dh
 = 002F				     $pMax equ 02Fh
 = 0031				     $pMin equ 031h
 = 0033				     $pNot equ 033h
 = 0035				     $pAnd equ 035h
 = 0037				     $pOr equ 037h
 = 0039				     $pXor equ 039h
 = 003B				     $pPositive equ 03Bh
 = 003D				     $pNegate equ 03Dh
 = 003F				     $pAdd equ 03Fh
 = 0041				     $pSubtract equ 041h
 = 0043				     $pMultiply equ 043h
 = 0045				     $pDivide equ 045h
 = 0047				     $pIntDivide equ 047h
 = 0049				     $pRemainder equ 049h
 = 004B				     $pPower equ 04Bh
 = 004D				     $pCommand equ 04Dh
 = 004F				     $pInterpret equ 04Fh
 = 0051				     $pNumeric equ 051h
 = 0053				     $pInvoke equ 053h
 = 0055				     $pCall equ 055h
 = 0057				     $pRep equ 057h
 = 0059				     $pRepEver equ 059h
 = 005B				     $pControlVar equ 05Bh
 = 005D				     $pDotControlVar equ 05Dh
 = 005F				     $pThen equ 05Fh
 = 0061				     $pWhen equ 061h
 = 0063				     $pJump equ 063h
 = 0065				     $pEq equ 065h
 = 0067				     $pNe equ 067h
 = 0069				     $pLt equ 069h
 = 006B				     $pLe equ 06Bh
 = 006D				     $pGe equ 06Dh
 = 006F				     $pGt equ 06Fh
 = 0071				     $pSeq equ 071h
 = 0073				     $pSne equ 073h
 = 0075				     $pSlt equ 075h
 = 0077				     $pSle equ 077h
 = 0079				     $pSge equ 079h
 = 007B				     $pSgt equ 07Bh
 = 007D				     $pCeq equ 07Dh
 = 007F				     $pCne equ 07Fh
 = 0081				     $pClt equ 081h
 = 0083				     $pCle equ 083h
 = 0085				     $pCge equ 085h
 = 0087				     $pCgt equ 087h
 = 0089				     $pInterpEnd equ 089h
 = 008B				     $pSignal equ 08Bh
 = 008D				     $pSignalOn equ 08Dh
 = 008F				     $pCallOn equ 08Fh
 = 0091				     $pDots equ 091h
 = 0093				     $pAssign equ 093h
 = 0095				     $pAssignStem equ 095h
 = 0097				     $pAssignDots equ 097h
 = 0099				     $pAssignConst equ 099h
 = 009B				     $pUnstore equ 09Bh
 = 009D				     $pDrop equ 09Dh
 = 009F				     $pExpose equ 09Fh
 = 00A1				     $pBool equ 0A1h
 = 00A3				     $pIterCV equ 0A3h
 = 00A5				     $pAddress equ 0A5h
 = 00A7				     $pCommandEnv equ 0A7h
 = 00A9				     $pEnvName equ 0A9h
 = 00AB				     $pBif equ 0ABh
 = 00AD				     $pBifGroup equ 0ADh
 = 00AF				     $pRaise equ 0AFh
 = 00B1				     $pSignalOff equ 0B1h
 = 00B3				     $pSignalV equ 0B3h
 = 00B5				     $pSysVar equ 0B5h
 = 00B7				     $pDropList equ 0B7h
 = 00B9				     $pExposeList equ 0B9h
 = 00BB				     $pPush equ 0BBh
 = 00BD				     $pQueue equ 0BDh
 = 00BF				     $pTrace equ 0BFh
 = 00C1				     $pTraceEvent equ 0C1h
 = 00C3				     $pOptions equ 0C3h
 = 0000				     $BifDATE equ 0
 = 0001				     $BifTIME equ 1
 = 0002				     $BifLINES equ 2
 = 0003				     $BifCHARS equ 3
 = 0004				     $BifCHARIN equ 4
 = 0005				     $BifCHAROUT equ 5
 = 0006				     $BifLINEIN equ 6
 = 0007				     $BifLINEOUT equ 7
 = 0008				     $BifSTREAM equ 8
 = 0009				     $BifSTRIP equ 9
 = 000A				     $BifVERIFY equ 10
 = 000B				     $BifQUALIFY equ 11
 = 000C				     $BifWORDS equ 12
 = 000D				     $BifTRUNC equ 13
 = 000E				     $BifERRORTEXT equ 14
 = 000F				     $BifSPACE equ 15
 = 0010				     $BifTRANSLATE equ 16
 = 0011				     $BifFORMAT equ 17
 = 0012				     $BifWORDLENGTH equ 18
 = 0013				     $BifWORDPOS equ 19
 = 0014				     $BifABBREV equ 20
 = 0015				     $BifCENTER equ 21
 = 0016				     $BifCENTRE equ 22
 = 0017				     $BifCOMPARE equ 23
 = 0018				     $BifDELSTR equ 24
 = 0019				     $BifDELWORD equ 25
 = 001A				     $BifRIGHT equ 26
 = 001B				     $BifLASTPOS equ 27
 = 001C				     $BifINSERT equ 28
 = 001D				     $BifOVERLAY equ 29
 = 001E				     $BifFORM equ 30
 = 001F				     $BifDATATYPE equ 31
 = 0020				     $BifADDRESS equ 32
 = 0021				     $BifARG equ 33
 = 0022				     $BifCONDITION equ 34
 = 0023				     $BifTRACE equ 35
 = 0024				     $BifFUZZ equ 36
 = 0025				     $BifDIGITS equ 37
 = 0026				     $BifSOURCELINE equ 38
 = 0027				     $BifXRANGE equ 39
 = 0028				     $BifRANDOM equ 40
 = 0029				     $BifREVERSE equ 41
 = 002A				     $BifABS equ 42
 = 002B				     $BifSIGN equ 43
 = 002C				     $BifC2X equ 44
 = 002D				     $BifB2X equ 45
 = 002E				     $BifX2B equ 46
 = 002F				     $BifX2C equ 47
 = 0030				     $BifX2D equ 48
 = 0031				     $BifC2D equ 49
 = 0032				     $BifD2C equ 50
 = 0033				     $BifD2X equ 51
 = 0034				     $BifBITAND equ 52
 = 0035				     $BifBITOR equ 53
 = 0036				     $BifBITXOR equ 54
 = 0037				     $BifVALUE equ 55
 = 0038				     $BifCOPIES equ 56
 = 0039				     $BifWORD equ 57
 = 003A				     $BifWORDINDEX equ 58
 = 003B				     $BifSUBWORD equ 59
 = 003C				     $BifPOS equ 60
 = 003D				     $BifLEFT equ 61
 = 003E				     $BifSUBSTR equ 62
 = 003F				     $BifQUEUED equ 63
 = 0040				     $BifSYMBOL equ 64
 = 0041				     $BifCOUNTSTR equ 65
 = 0042				     $BifCHANGESTR equ 66
 = 0043				     $BifLENGTH equ 67
 = 0044				     $BifMAX equ 68
 = 0045				     $BifMIN equ 69
 = 00B3				     $BcodesBase equ 0B3h
 = 00B3				     Zero equ 0B3h
 = 00B5				     One equ 0B5h
 = 00B7				     Null equ 0B7h
 = 00B9				     String equ 0B9h
 = 00BB				     String1 equ 0BBh
 = 00BD				     String2 equ 0BDh
 = 00BF				     _RetBc equ 0BFh
 = 00C1				     _RetB equ 0C1h
 = 00C3				     _RetF equ 0C3h
 = 00C5				     _IterCV equ 0C5h
 = 00C7				     _Exists equ 0C7h
 = 00C9				     _Then equ 0C9h
 = 00CB				     _Jump equ 0CBh
 = 00CD				     _Eq equ 0CDh
 = 00CF				     _Ne equ 0CFh
 = 00D1				     _Lt equ 0D1h
 = 00D3				     _Le equ 0D3h
 = 00D5				     _Ge equ 0D5h
 = 00D7				     _Gt equ 0D7h
 = 00D9				     _Seq equ 0D9h
 = 00DB				     _Sne equ 0DBh
 = 00DD				     _Slt equ 0DDh
 = 00DF				     CONFIG_RAISE equ 0DFh
 = 00E1				     CONFIG_RAISE40 equ 0E1h
 = 00E3				     CONFIG_UPPER equ 0E3h
 = 00E5				     CONFIG_MSG equ 0E5h
 = 00E7				     CONFIG_C2B equ 0E7h
 = 00E9				     CONFIG_B2C equ 0E9h
 = 00EB				     CONFIG_STREAM_POSITION equ 0EBh
 = 00ED				     CONFIG_STREAM_CHARIN equ 0EDh
 = 00EF				     CONFIG_STREAM_QUERY equ 0EFh
 = 00F1				     CONFIG_STREAM_CLOSE equ 0F1h
 = 00F3				     CONFIG_STREAM_CHAROUT equ 0F3h
 = 00F5				     CONFIG_STREAM_COUNT equ 0F5h
 = 00F7				     CONFIG_STREAM_QUALIFIED equ 0F7h
 = 00F9				     CONFIG_STREAM_COMMAND equ 0F9h
 = 00FB				     CONFIG_STREAM_STATE equ 0FBh
 = 00FD				     CONFIG_TIME equ 0FDh
 = 00FF				     CONFIG_ARITH equ 0FFh
 = 0000				     $0 equ 0
 = 0000				     $Eos equ 0*4
 = 0001				     $12 equ 1
 = 0004				     $Semi equ 1*4
 = 0002				     $11 equ 2
 = 0008				     $UnAccept equ 2*4
 = 0003				     $6 equ 3
 = 000C				     $Lparen equ 3*4
 = 0004				     $3 equ 4
 = 0010				     $Percent equ 4*4
 = 0011				     $Asterisk equ 4*(5-1) + 1
 = 0012				     $Slash equ 4*(5-1) + 2
 = 0013				     $Rem equ 4*(5-1) + 3
 = 0014				     $Xor equ 5*4
 = 0015				     $Or equ 4*(6-1) + 1
 = 0006				     $5 equ 6
 = 0018				     $And equ 6*4
 = 0007				     $10 equ 7
 = 001C				     $Comma equ 7*4
 = 0020				     $Not equ 8*4
 = 0009				     $9 equ 9
 = 0024				     $Minus equ 9*4
 = 0025				     $Plus equ 4*(10-1) + 1
 = 002B				     $Eq equ 10*4+3
 = 002C				     $Ne equ 11*4
 = 002D				     $Lt equ 4*(12-1) + 1
 = 002E				     $Le equ 4*(12-1) + 2
 = 002F				     $Ge equ 4*(12-1) + 3
 = 0030				     $Gt equ 12*4
 = 0031				     $Seq equ 4*(13-1) + 1
 = 0032				     $Sne equ 4*(13-1) + 2
 = 0033				     $Slt equ 4*(13-1) + 3
 = 0034				     $Sle equ 13*4
 = 0035				     $Sge equ 4*(14-1) + 1
 = 0036				     $Sgt equ 4*(14-1) + 2
 = 000E				     $7 equ 14
 = 0038				     $Rparen equ 14*4
 = 003C				     $STRING equ 15*4
 = 0040				     $CONST_SYMBOL equ 16*4
 = 0044				     $NUMBER equ 17*4
 = 0012				     $28 equ 18
 = 0048				     $VAR_SYMBOL equ 18*4
 = 0013				     $1 equ 19
 = 004C				     $Abut equ 19*4
 = 004D				     $Cat equ 4*(20-1) + 1
 = 0014				     $8 equ 20
 = 0050				     $Power equ 20*4
 = 0015				     $2 equ 21
 = 0054				     $Assign equ 21*4
 = 0016				     $21 equ 22
 = 0058				     $VALUE equ 22*4
 = 0017				     $16 equ 23
 = 005C				     $END equ 23*4
 = 0018				     $18 equ 24
 = 0060				     $THEN equ 24*4
 = 0019				     $17 equ 25
 = 0064				     $FOR equ 25*4
 = 001A				     $19 equ 26
 = 0068				     $TO equ 26*4
 = 001B				     $15 equ 27
 = 006C				     $BY equ 27*4
 = 0070				     $UNTIL equ 28*4
 = 0074				     $WHILE equ 29*4
 = 001E				     $23 equ 30
 = 0078				     $WITH equ 30*4
 = 007C				     $LINEIN equ 31*4
 = 007D				     $SOURCE equ 4*(32-1) + 1
 = 007E				     $VERSION equ 4*(32-1) + 2
 = 0080				     $PULL equ 32*4
 = 0084				     $VAR equ 33*4
 = 0088				     $ARG equ 34*4
 = 008C				     $ADDRESS equ 35*4
 = 0090				     $APPEND equ 36*4
 = 0094				     $CALL equ 37*4
 = 0098				     $DO equ 38*4
 = 009C				     $ELSE equ 39*4
 = 00A0				     $NOP equ 40*4
 = 00A4				     $INTERPRET equ 41*4
 = 00A5				     $OPTIONS equ 4*(42-1) + 1
 = 00A8				     $EXIT equ 42*4
 = 00A9				     $PUSH equ 4*(43-1) + 1
 = 00AA				     $QUEUE equ 4*(43-1) + 2
 = 00AB				     $RETURN equ 4*(43-1) + 3
 = 00AC				     $SAY equ 43*4
 = 00B0				     $TRACE equ 44*4
 = 00B4				     $LEAVE equ 45*4
 = 00B5				     $ITERATE equ 4*(46-1) + 1
 = 00B8				     $DROP equ 46*4
 = 00BC				     $EXPOSE equ 47*4
 = 00C0				     $SIGNAL equ 48*4
 = 00C4				     $SYNTAX equ 49*4
 = 00C5				     $LOSTDIGITS equ 4*(50-1) + 1
 = 00C6				     $NOVALUE equ 4*(50-1) + 2
 = 00C8				     $NOTREADY equ 50*4
 = 00C9				     $FAILURE equ 4*(51-1) + 1
 = 00CA				     $HALT equ 4*(51-1) + 2
 = 00CC				     $ERROR equ 51*4
 = 00D0				     $UPPER equ 52*4
 = 00D4				     $IF equ 53*4
 = 00D8				     $INPUT equ 54*4
 = 00DC				     $NAME equ 55*4
 = 00E0				     $NUMERIC equ 56*4
 = 00E4				     $DIGITS equ 57*4
 = 00E5				     $FUZZ equ 4*(58-1) + 1
 = 00E8				     $FORM equ 58*4
 = 00EC				     $ENGINEERING equ 59*4
 = 00ED				     $SCIENTIFIC equ 4*(60-1) + 1
 = 00F0				     $OTHERWISE equ 60*4
 = 00F4				     $OUTPUT equ 61*4
 = 00F8				     $PARSE equ 62*4
 = 00FC				     $PROCEDURE equ 63*4
 = 0100				     $SELECT equ 64*4
 = 0104				     $WHEN equ 65*4
 = 0108				     $REPLACE equ 66*4
 = 010C				     $STEM equ 67*4
 = 0110				     $STREAM equ 68*4
 = 0114				     $NORMAL equ 69*4
 = 0118				     $FOREVER equ 70*4
 = 011C				     $OFF equ 71*4
 = 0120				     $ON equ 72*4
 = 0000				     $sPercent equ 0
 = 0006				     $sDrop equ 6
 = 0009				     $sStem equ 9
 = 000A				     $sWith equ 10
 = 000B				     $sDropList equ 11
 = 0014				     $sMinus equ 20
 = 0017				     $sLength equ 23
 = 001B				     $sEq equ 27
 = 0021				     $sSeq equ 33
 = 0027				     $sDigits equ 39
 = 002A				     $sNop equ 42
 = 002B				     $sForm equ 43
 = 002D				     $sAddress equ 45
 = 0030				     $sNegate equ 48
 = 0031				     $sPositive equ 49
 = 0032				     $sExit equ 50
 = 0035				     $sReturns equ 53
 = 0037				     $sNumber equ 55
 = 0039				     $sRaise equ 57
 = 003E				     $sLeave equ 62
 = 003F				     $sIterate equ 63
 = 00FE				     ParseDot equ 254; A non-operator Bcode value otherwise unused.
 = 0028				     KeysBase equ 4*10; Manual
				     ; Here are some symbolic names of registers, used for readability of this code.
 = bp				     ZeroBp is <bp>
 = di				     StackDi is <di>      ; The soft stack pointer.
 = si				     StackSi is <si>      ; Another soft stack pointer.
 = dx				     StackDx is <dx>      ; Limit of range on soft stack.
 = bx				     ArrayBx is <bx>      ; To an element of Vshape.
 = bx				     StemBx is <bx>       ; When the subject is a stem.
 = si				     TailSi is <si>       ; When the subject is a tailed variable.
 = bx				     FileBx is <bx>       ; To an element of Fshape.
 = si				     ArraySi is <si>      ; To an element of Vshape.
 = bx				     OperandBx is <bx>    ; A pointer to an operand in one of the arrays of Vshapes.
 = bl				     OperandBl is <bl>    ;
 = bx				     ProbeBx is <bx>      ; Used when searching a binary tree for a stemmed variable.
 = si				     LowSi is <si>        ; Used when searching a binary tree.
 = di				     HighDi is <di>       ; Used when searching a binary tree.
 = ax				     ToFindLenAx is <ax>  ; Used when searching a binary tree.
 = dx				     ToFindDx is <dx>     ; Used when searching a binary tree.
 = cx				     KeyListCx is <cx>;   ; Parameter to keyword lookup.
 = ch				     TokNowCh is <ch>;    ; One of the places numbers for tokens are held.
 = si				     StateSi is <si>      ; The state in parsing.
 = si				     ParseSi is <si>      ; Parse state pushed on hard stack.
 = di				     StateDi is <di>      ; Address first word of the state.
 = bx				     StateBx is <bx>      ; Often distance from StateOrig to some state data.
 = dx				     ParseDx is <dx>      ; Token data in form the parser uses.
 = ah				     RtypeAh is <ah>      ; Type of reduction done in Cycle.
 = ah				     TokNumAh is <ah>     ; Where next token is returned, becoming TokNum.
 = si				     LookupSi is <si>     ; Where Lookup finds unresolved compound symbol.
 = si				     LevelSi is <si>      ; To block for this invocation level.
 = di				     LevelDi is <di>
 = si				     CursorSi is <si>     ; Offset in Pcode.
 = bx				     CursorBx is <bx>     ; Offset in Pcode.
 = cx				     OpAppendCx is <cx>   ; Numeric argument to PcodeOp routine.
 = si				     ScanSi is <si>       ; Scanning the user's source program.
 = cl				     OpAppendCl is <cl>
 = al				     RawCharAl is <al>
 = ah				     RawCharAh is <ah>
 = al				     AttribAl is <al>
 = dl				     RadixTypeDl is <dl>
 = cx				     ParmsCx is <cx>
 = cl				     ParmsCl is <cl>
 = bx				     LengthAtBx is <bx>
 = dx				     SymsZiDx is <dx>
 = di				     SegOffDi is <di> ; Offset in Zone of a segment pointer.
				     ; Special use of bp for two-byte call.
 = call bp			     Error49Bp is <call bp>
				     ; Shorthand for current byte of input.
 = byte ptr ss:[si+bp]		     RawChar is <byte ptr ss:[si+bp]>
				     ; These for making messages.
 = bl				     DepthBl is <bl>; of recursion.
 = bx				     DepthBx is <bx>; Bug if inc/dec affects bh.
 = bh				     TheMsgBh is <bh>; on when scanning the target.
 = cx				     PartLenCx is <cx>; Amount of compressed to expand.
 = cl				     LowPartLenCl is <cl>
 = cx				     KeywordOffsetCx is <cx>
 = dx				     MajMinDx is <dx>
 = dh				     MajorDh is <dh>
 = dl				     MinorDl is <dl>
 = dx				     MinorDx is <dx>; inc/dec
 = si				     ScannerSi is <si>; SI the address in table. (LODS used)
				     ; For segment registers.
				     ; ES has some transient uses (particularly because it cannot be overridden
				     ; in movsb) but mainly it is set to the symbols segment during compilation
				     ; and the program scope segment during execution.  Tailed variable references
				     ; also use it (transiently) because each stem variable has it's own segment.
 = es				     SymbolsEs is <es>
 = es				     ProgEs is <es>
 = es				     StemEs is <es>

 = 0019				     $DosDisk equ 19h
 = 002A				     $DosDate equ 2Ah
 = 002C				     $DosTime equ 2Ch
 = 003C				     $DosCreate equ 3Ch
 = 003D				     $DosOpen equ 3Dh
 = 003E				     $DosClose equ 3Eh
 = 003F				     $DosRead equ 3Fh
 = 0040				     $DosWrite equ 40h
 = 0041				     $DosDelete equ 41h
 = 0042				     $DosSeek equ 42h
 = 0043				     $DosChmod equ 43h
 = 0047				     $DosPath equ 47h
 = 0048				     $DosAllocate equ 48h
 = 0049				     $DosFree equ 49h
 = 004A				     $DosModifyAllocated equ 4Ah
 = 004B				     $DosExecute equ 4Bh
 = 004C				     $DosExit equ 4Ch
 = 004D				     $DosReturnCode equ 4Dh
 = 0059				     $DosGetError equ 59h
 = 0062				     $DosPSP equ 62h
				     ; As allowed by the Standard:
 = 000A				     $Limit_EnvironmentName equ 10
 = C350				     $Limit_String equ 50000
 = 00FA				     $Limit_Literal equ 250
 = 00FA				     $Limit_Name equ 250
 = 270F				     $Limit_Digits equ 9999; Note Msg33.2 must be generated to match.
 = 0009				     $Limit_ExponentDigits equ 9
 = 0032				     $Limit_Insert equ 50; Longest insert.
				     ; Ours
 = 0036				     $Limit_Major equ 54; Highest message user sees.
 = 0037				     $Descriptions equ 55; A place in the message numbering for oddment prose.
 = 00C8				     $MsgRoom equ 4*$Limit_Insert
 = 00AF				     $MaxPreInsert equ 175; Chars in message.
 = 0050				     $MsgChunk equ 80; Strictly, ANSI says leave chunking to system.
 = 0064				     $MaxParms equ 100; Per invokation. (Or temporary results within an expression)
 = 0400				     $FileBufferSize equ 1024
 = 0003				     $Leeway equ 3
				     ; Data types within symbols segment:
 = 00FF				     $tChar equ 0FFh
 = 00FE				     $tLabel equ 0FEh
 = 00FD				     $tBinary equ 0FDh
				     ; Minor bits on an operand reference.
 = 0006				     $CaseTarget equ 6
				     ; Subcodes to Pcodes.
				     ; These are used by the utility. Avoid putting semicolon abutting the "h".
				     ; These markers share values with Sysvar references in Bcode but we don't
				     ; parse into sysvars in our Bcode.
				     ; If we want to detect presence/absence of these they need to be 2 modulo 8.
				     ; However if they always follow something known, any value will do.
				     ; In practice we sometimes use the modulo 8 approach (even at the expense of
				     ; a shift when they are used) so as to make scanning of Pcode simpler.
 = 0002				     $mRepTail equ 02h        ; Used when $pDotControlVar addresses tails.
 = 000A				     $mUpper equ 0Ah          ; Modifier on parse source.
 = 0012				     $mParseEscape equ 12h    ; Parse part too complex to handle as single action.
 = 001A				     $mParseEnd equ 1Ah       ; Parse ends.
 = 0022				     $mPosRest equ 22h        ; Parse trigger
 = 002A				     $mPattern equ 2Ah        ; Parse trigger after operand
 = 0032				     $mPosEq equ 32h          ; Parse trigger after operand
 = 003A				     $mPosPlus equ 3Ah        ; Parse trigger after operand
 = 0042				     $mPosMinus equ 42h       ; Parse trigger after operand
 = 004A				     $mTemplateComma equ 4Ah  ; Parse trigger
				     ; These in number field of $pParse:
 = 0000				     $nVar equ 0              ; These
 = 0002				     $nWith equ 2             ;       two lowest of parse sources.
 = 0004				     $nArg equ 4
 = 0006				     $nLineIn equ 6
 = 0008				     $nPull equ 8
 = 000A				     $nSource equ 10
 = 000C				     $nVersion equ 12
				     ; These in number field of $pCommandEnv
 = 0000				     $nStem equ 00h
 = 0020				     $nStream equ 20h
 = 0040				     $nNormal equ 40h
				     ; These in number field of $pNumeric
 = 0000				     $nDigits equ 00h
 = 0002				     $nFuzz equ 02h
 = 0004				     $nForm equ 04h
				     ; These in number field of $pRaise
 = 0000				     $n7p3 equ 0
 = 0002				     $n17p1 equ 2
 = 0004				     $n40p3 equ 4
 = 0006				     $n40p4 equ 6
 = 0008				     $n40p5 equ 8
				     ; Types for things in Z.Serial
				     ; $SerialNone is also used for message building.
; $SerialSource is qualified by Z.RelativeNow - what part of source file.
				     ; These are modals except for $SerialCompaction which saves/restores previous.
 = 0000				     $SerialNone equ 0
 = 0001				     $SerialQue equ 1
 = 0002				     $SerialCompaction equ 2
 = 0003				     $SerialInterpret equ 3
 = 0004				     $SerialSource equ 4
				     ; Trace events. (Order unexploited except for highest.)
 = 0000				     $TraceAssign equ 0
 = 0002				     $TraceBY equ 1*2
 = 0004				     $TraceClause equ 2*2
 = 0006				     $TraceCompound equ 3*2
 = 0008				     $TraceDot equ 4*2
 = 000A				     $TraceError equ 5*2
 = 000C				     $TraceExpr equ 6*2
 = 000E				     $TraceFailure equ 7*2
 = 0010				     $TraceFunction equ 8*2
 = 0012				     $TraceOperator equ 9*2
 = 0014				     $TracePrefix equ 10*2
 = 0016				     $TraceLit equ 11*2
 = 0018				     $TraceVar equ 12*2
 = 001A				     $TraceBack equ 13*2; Highest for $TrEv.
 = 001C				     $TraceParse equ 14*2; Only sets flag.
 = 001E				     $TraceEndClause equ 15*2; Compiled at end of a traced clause.
				     ; Descriptions on messages.    See OverfullMem for some.
				     Assert Zshape.SysFiles-Zshape.SysFiles eq 2*1-2
				     Assert Zshape.Consts-Zshape.SysFiles eq 2*2-2
				     Assert Zshape.Vars-Zshape.SysFiles eq 2*3-2
				     Assert Zshape.ProgScope-Zshape.SysFiles eq 2*4-2 ; Used for 'memory' msg.
				     Assert Zshape.VarScope-Zshape.SysFiles eq 2*5-2 ; Used for 'string length'
				     Assert Zshape.Symbols-Zshape.SysFiles eq 2*6-2
				     Assert Zshape.Code-Zshape.SysFiles eq 2*7-2
				     Assert Zshape.Zone-Zshape.SysFiles eq 2*8-2
				     Assert Zshape.Stem-Zshape.SysFiles eq 2*9-2
 = 0005				     $DescString equ 5
 = 000A				     $DescArgs   equ 10
 = 000B				     $Desc59H    equ 11
 = 000C				     $DescFiles  equ 12
 = 000D				     $DescQueue  equ 13
 = 0080				     $BifTag equ 80h; Helps with reverse lookup
				     ; As well as source coming from a file, there are the cases of INTERPRET,
				     ; VALUE, and SYMBOL where some compiling is needed.  Also VarPool cases.
				     ; Even if only Lookup is needed, it can be simplest to compile and pick
				     ; the answer up from the generated code.
 = 11C8				     $SourceBufferSize equ 4552; Allows for long bit literal.
 = 2000				     $InitStackSize equ 8192
 = 0000				      $White equ 0
 = 0040				      $Digit equ 64
 = 0080				      $Letter equ 128
 = 00C0				      $Special equ 192
 = 0008				      $NonUpable equ 8
 = 0004				      $Bb equ 4
 = 0002				      $Xx equ 2
 = 0001				      $Ee equ 1
 = 0048				      $Lowercase equ $Digit+$NonUpable; Use jnz avoiding uppering.
				     ; Constants for Bifs.
 = FFB9				     $BifBase equ 65535-70; 68 bifs at high numbers.
				     ; The equates for pseudo code operations are with the P switch.
				     ; (See also $Reserved)
 = 00C0				     $Test       equ 11000000b; To test the most vital bits.
 = 0080				     $NullString equ 10000000b; 01000nnn for 0-7 length strings.
 = 0088				     $Omitted    equ 10001000b; Value of omitted is null string.
 = 0089				     $Variable   equ 10001001b; Only used at compile time.
 = 008A				     $Constant   equ 10001010b; Only used at compile time. (Untyped constant.)
 = 008B				     $Label      equ 10001011b;
 = 00C0				     $AwayString equ 11000000b;
				     ; NYI $AwayNumber equ 11110000b;
				     ; The 01 tags don't reach the runtime stack.
				     ; (That avoids a test when type checking operands now and allows future use.)
 = 0040				     $Dropped    equ 01000000b;
 = 0050				     $Exposed    equ 01010000b;
 = 0060				     $Stem       equ 01100000b;
 = 0044				     $MsgNum     equ 01000100b; Msg number in Major/Minor form.
 = 0048				     $Sigl       equ 01001000b; Jump point still as code offset.
				     ; Not to be confused with the bits from the table of characters:
				     XlatBDLS macro ;; 0=Blanks 1=Digits 2=Letters 3=Special
				      
; Picks up attributes of current char and sets flags.
				      xlat Bptr cs:[bx]
				      test al,0C0h
				     endm
				     Down macro
				      sub StackDi,$StrideV
				     endm
				     Up macro
				      add StackDi,$StrideV
				     endm
				     DownCare macro
				      lea StackDi,(-$StrideV)[StackDi]
				     endm
				     UpCare macro
				      lea StackDi,$StrideV[StackDi]
				     endm
				     ; Hard & soft cursors return.
				     RetSi macro
				      pop CursorSi
				      ret
				     endm
				     ; Macros for some common idioms in Pcode making.
				     OpAl macro $p
				       mov al,$p
				       call PcodeOp
				     endm
				     OpRet macro $p
				       mov al,$p
				       jmp PcodeOp
				     endm
				     EvAh macro $p
				       mov ah,$p
				       call TraceEvent
				     endm
				     EvRet macro $p
				       mov ah,$p
				       jmp TraceEvent
				     endm

				     ; Macros are used to make that clear where code is run out of the interpreter
				     ; loop, and to allow experiments in how the return is made.
				     ; These experiments never worked out because of the difficulty in having some
				     ; operations that needed to be routines (eg Assign as part of ControlVar) and
				     ; some that didn't.  Changing code to achieve sometimes-routine is a speed
				     ; killer.

				     Back macro
				     jmp XCycle
				     endm
				     BackRet macro
				     ret
				     endm

				     ; When all the operations end with a jump to XCycle we can turn them into
				     ; callable routines by sticking a ret instruction the code at XCycle.
				     ; Performance killer so rarely used.
 = 00C3				     $ret equ 0C3h
				     CodeModeR macro
				      push Wptr cs:XCycle
				      mov Bptr cs:XCycle,$ret
				     endm
				     UnCodeMode macro
				      pop Wptr cs:XCycle
				     endm

				     Repmovsb macro
				     local IsEven
				     if 1
				      rep movsb
				     endif
				     if 0
				     ; This ought to be faster but didn't seem to be. Perhaps jnc high cost.
				      shr cx,1
				      rep movsw
				      jnc IsEven
				      movsb
				      IsEven:
				     endif
				     endm

				     ; There is a "mv" macro that moves registers by push & pop.
				     ; There is a "move" that saves typing when memory-to-memory.
				     ; Here is "Mv" that moves a Rexx variable (8 bytes addressed by pointer
				     ; register) memory-to-memory by push & pop.
				     ; Here is "Move" that moves a Rexx variable (8 bytes addressed by pointer
				     ; register) memory-to-memory by shuffling through general registers.
				     Mv macro To,From
				     ; "Move" is faster than "Mv" and no bigger, if there is a spare register.
				        pushd From.OverExpo
				        pop To.OverExpo
				        pushd From.OverMant
				        pop To.OverMant
				     endm

				     Move macro To,From,Via
				     ; Move of a Rexx value. Convention is to use ecx:eax
				      ifb <To>
				     ; No target means load usual registers.
				        mov ecx,From.OverExpo
				        mov eax,From.OverMant
				      elseifb <From>
				     ; No source means store from usual registers.
				        mov To.OverExpo,ecx
				        mov To.OverMant,eax
				      elseifb <Via>
				     ; Copy via usual registers.
				        mov ecx,From.OverExpo
				        mov To.OverExpo,ecx
				        mov eax,From.OverMant
				        mov To.OverMant,eax
				      else
				     ; Copy via specified register.
				       mov Via,From.OverExpo
				       mov To.OverExpo,Via
				       mov Via,From.OverMant
				       mov To.OverMant,Via
				      endif
				     endm

 0006				     FarpX struc
 0000	    0000 [		      Fr dword Overlay
	     00000000
	    ]
 0000  0000			      Pt charp 0
 0002  0000			      Sg Segp 0
 0004	    0000 [		      Limit word Overlay
	     0000
	    ]
 0004  0000			      Len word 0
				     FarpX ends


 0008				     Vshape union
				      struc; When containing a short string.
 0000	    0007 [		       String db 7 dup(?)
	     00
	    ]
 0007  00			       Dtype db ?                        ; Whether string or not and used length.
				      ends
				      struc; When binary number
				       Sign byte Overlay     ; Odd means negative mantissa.
				       ExpAnd dword Overlay  ; Exponent and sign of mantissa.
				        ExpoUses db 3 dup(?)
				        ExpoSign db ?        ; Sign of exponent.
				       Mantissa dword Overlay
				        MantLow word ?
				        MantHigh word ?
				      ends
				      struc; When treated as just bytes.
				       OverExpo dword ?
				       OverMant dword ?
				      ends
				      struc; When referencing a long string.
				       FarpX <>
				       dw ?                              ; Covers Dtype.
				      ends
				      struc; When referencing label information
				       LabelValue word ?                 ; Offset in Pcode.
				       dword ?
				       LabelType word Overlay
				       byte ?                            ; 0 = normal, 1 = TraceOnly
				       db ?                              ; Covers Dtype. Will be $Label.
				      ends
				      struc; When compile time stack item for a constant.
				       WhichCon word ?                  ; Offset under ProgScope.
				       PcodePos word ?                  ; Where it will be in Pcode.
				       db 4 dup(?)                       ; Covers Dtype. Will be $Constant.
				      ends
				      struc; When compile time stack item for a resolved target.
				       HeldOver word ?                   ; To go in Pcode eventually.
				       db 6 dup(?)                       ; Covers Dtype. Will be $NullString
				      ends
				      struc ; When used to look up symbols.  Dtype not relevant then.
				     ; Moot whether this is really a Vshape but pretending it is allows use of Vbx.
				       Pair dd 0 dup(?)                  ; Next two together.
				        Lower Ushortp ?                  ; a subtree.
				        Higher Ushortp ?                 ; a subtree
				       Here charp ?                      ; to the symbol.
				      ends
				     Vshape ends
				     ; V. is for Vshape objects addressed by [di+bp]; eg variables on the stack.
 = (Vshape ptr[bp+di])		     V is <(Vshape ptr[bp+di])>
				     ; 1-origin numbers for the parameters of bif, but V is used for V1 (and result).
				     ; So lhs and rhs of binary operation are V and V2, result overlays V.
				     ; Of course, changing di by $StrideV is an alternative to using different Vn.
 = 0008				     $StrideV equ size Vshape
 = 0003				     $ShiftV equ 3
 = (Vshape ptr[bp+di-$StrideV])	     V0 is <(Vshape ptr[bp+di-$StrideV])>
 = (Vshape ptr[bp+di-2*$StrideV]     V00 is <(Vshape ptr[bp+di-2*$StrideV])>
   )
 = (Vshape ptr[bp+di+$StrideV])	     V2 is <(Vshape ptr[bp+di+$StrideV])>
 = (Vshape ptr[bp+di+2*$StrideV]     V3 is <(Vshape ptr[bp+di+2*$StrideV])>
   )
 = (Vshape ptr[bp+di+3*$StrideV]     V4 is <(Vshape ptr[bp+di+3*$StrideV])>
   )
				     ; Vsi. is for Vshape objects addressed by [si+bp]; variables on the stack.
 = (Vshape ptr[bp+si])		     Vsi is <(Vshape ptr[bp+si])>
				     ;Vsif. is for Vshape objects addressed by fs:[si]; Variables of procedure.
 = fs:(Vshape ptr[si])		     Vsif is <fs:(Vshape ptr[si])>
				     ; Vdid. is for Vshape objects addressed by ds:[di]
 = ds:(Vshape ptr[di])		     Vdid is <ds:(Vshape ptr[di])>
				     ; Vsid. is for Vshape objects addressed by ds:[si]
 = ds:(Vshape ptr[si])		     Vsid is <ds:(Vshape ptr[si])>
				     ;Vbx. is for Vshape objects addressed by ds:[bx]
 = ds:(Vshape ptr[bx])		     Vbx is <ds:(Vshape ptr[bx])>
				     ;Vbxf. is for Vshape objects addressed by fs:[bx]; Variables of procedure.
 = fs:(Vshape ptr[bx])		     Vbxf is <fs:(Vshape ptr[bx])>
 = fs:(Vshape ptr[bx-$CaseTarget     Vbxt is <fs:(Vshape ptr[bx-$CaseTarget])>
   ])
 = fs:(Vshape ptr[bx+$StrideV])	     Vbxf2 is <fs:(Vshape ptr[bx+$StrideV])>
				     ;Vbxs. is for Vshape objects addressed by ss:[bx]; Variables on the stack.
 = ss:(Vshape ptr[bx])		     Vbxs is <ss:(Vshape ptr[bx])>
				     ;Ve. is for Vshape objects addressed by es:[bp]; (Saves a byte sometimes)
 = es:(Vshape ptr[bp])		     Ve is <es:(Vshape ptr[bp])>
 = fs:(Vshape ptr[bp])		     Vf is <fs:(Vshape ptr[bp])>
				     ;Vbxe. is for Vshape objects addressed by es:[bx]
 = es:(Vshape ptr[bx])		     Vbxe is <es:(Vshape ptr[bx])>
				     if 0
				     endif
 0028				     Dshape struc; The elements of soft stack for DO loops.    (And INTERPRET)
				     ; Here the n of "DO n;" will wind up.
				     ; Also x of DO j=x...  We don't need to retain that through the DO-END, but
				     ; harmless to do so. (Overlaid when DO A.K=....)
 0000	    0000 [		      TailsAt word Overlay; Where the pcode to reload tails is.
	     0000
	    ]
 0000	    0000 [		      Subject Vshape 0 dup(<>); When block is for an INTERPRET.
	     0007 [
	      00 00
	     ]
 0000	     0000 [		      CVinit Vshape 0 dup(<>)
	      0007 [
	       00 00
	      ]
 0000	      0007 [		      Reps Vshape <>
	       00
	      ] 00
 0008	      0007 [		      To Vshape <>
	       00
	      ] 00
 0010	      0007 [		      By Vshape <>
	       00
	      ] 00
 0018	      0007 [		      ForCount Vshape <>
	       00
	      ] 00
				     ; The rest is made similar to a Vshape so that Bcode can overlay Dshape as
				     ; variables.
 0020	      0000 [		      PcodePos charp Overlay; When block used for an INTERPRET.
	       0000
	      ]
 0020  0000			      Iteration charp ?; Where to branch on ITERATE
 0022  0000			      Leaving charp ?  ; Where to branch on LEAVE
 0024	      0000 [		      UpDO charp Overlay; When block used for an INTERPRET.
	       0000
	      ]
 0024  0000			      CV charp ?; Offset of the control variable.
 0026  00			      byte ?
 0027  00			      Rec byte ?;  MASM confused when LoopsRec<> used.
				     Dshape ends
 = 0028				     $StrideD equ size Dshape
				     ; D. is for Dshape objects addressed by [di+bp]; the DO nesting.
				     ; These objects are addressed from partway through them.  This is because the
				     ; XCycle loop benefits from moving StackDi over the "previous operand" when
				     ; loading the latest operand. But the "previous operand" may actually have
				     ; been one of these DO control blocks.
				     ; Use D1 to address the DO block when StackDi has been upped to indicate
				     ; there is a value stacked later than the DO block.
 = (Dshape ptr[bp+di-$StrideD+$S     D is <(Dshape ptr[bp+di-$StrideD+$StrideV])>
   trideV])
 = (Dshape ptr[bp+di-$StrideD])	     D1 is <(Dshape ptr[bp+di-$StrideD])>

				      FRec record Qual:1,Read:1,Open:1,BeenRead:1,BeenWrite:1,
				                  WriteMode:1,IsSource:1,BeenCompiled:1,FFpad:8
 001A				     Fshape struct ; Data for a file, the key is the file name.
 0000  0000			       Flags FRec <>
 0002  0000			       ToQual word ? ; To item for fully qualified name.
 0004  00000000			       Lines Ulong ?
 0008  0000			       Hand Handle ?
 000A  00000000			       Other_Position Ulong ? ; A position on the file, provided by DOS.
 000E  00			       Exten byte ?; 1=REX/CMD 2=COM 3=EXE 4=BAT
 000F  00			       TraceWidth byte ?; How many chars in a clause identifier.
 0010  0000			       Symbols Segp ? ; Saved from Zone when file inactive.
 0012  0000			       Code Segp ?
 0014  0000			       Vars Segp ?
 0016  0000			       Consts Segp ?
 0018  0000			       ProgScope Segp ?
				     Fshape ends
 = 001A				     $StrideF equ size Fshape
				     ; F. is for Fshape objects addressed by [bx]; a file.
				     ; An Fshape is put ahead of a Jshape.
 = (Fshape ptr[bx-$StrideF])	     F is <(Fshape ptr[bx-$StrideF])>

 0008				     EnvBlock struc 2
 0000  0000			      EnvNumber    word ?
 0002  0000			      EnvResourceI word ?
 0004  0000			      EnvResourceO word ?
 0006  0000			      EnvResourceE word ?
				     EnvBlock ends
				     if 1; Private to memory object
 0006				     Ashape struc; Describe pieces of memory got from Dos, and part of them used.
 0000  0000 0000		      Fr Farp <>
 0004  0000			      Amount Ushort 0
				     Ashape ends
				     ; A. is for Ashape objects addressed by [si+bp]; For memory allocation.
 = (Ashape ptr[bp+si])		     A is <(Ashape ptr[bp+si])>
 = 0006				     $StrideA equ size Ashape
				     endif
 0015				     InsBlock struc;  Used by issuing of messages, to deduce inserts.
 0000	      0000 [		      MajMin word Overlay    ; This is an error detected.
	       0000
	      ]
 0000  00			       Minor byte ?
 0001  00			       Major byte ?
 0002  0000			      Value word ?           ; Soft stack offset of value.
 0004	      0000 [		      Named Ushort Overlay
	       0000
	      ]
 0004  0000			      Position Ushort ?
 0006  0000			      KeysList charp ?       ; Yields keyword list
 0008  00			      ArgNum byte ?
 0009  00			      Desc byte ?            ; To find text of <Description>
 000A	      0000 [		      Hex byte Overlay
	       00
	      ]
 000A  00			      Char byte ?
 000B  0000			      Options charp ?        ; Msg 40.28
 000D  0000			      OptsHi charp ?         ; Msg 40.28
 000F  0000			      Digits word ?          ; Msgs 26.1 and 33.1  Don't overlay, zero meaningful.
 0011  0000			      TokPos charp ?         ; Position of token within segment holding source.
 0013  0000			      TokLen Ushort ?        ; Ushort although inserts have low limit length.
				     InsBlock ends

				     ; "Interacting" is a bug for "Interactive" ?. Pad 8 makes byte offset zero.
				     LevelRec record Lpad:8,InheritDone:1,DigitsSet:1,IsProcedure:1,IsExternal:1,
				         IsFunction:1,Lpad2:3

				     LevelRecI record LIPad:14,Interactive:1,ConditionInstruction:1
				     ; Instruction.Condition and ConditionInstruction are the same value.

				     ConditionRec record Enabling:1,Delayed:1,PendingNow:1,Instruction:1,CRspare:4

 007C				     Lshape struc; The elements of soft stack for invocations.
				     ; The part inherited from the level above. (When there is one.)
				      align 4; We move the inherited bit using doublewords.
 0000	      0000 [		       DigitsFuzz dword Overlay
	       00000000
	      ]
 0000  0000			       Digits Ushort ?
 0002  0000			       Fuzz Ushort ?
 0004  00			       Form char ?
 0005  0000000000000000		       StartTime qword ?
 000D	      0000 [		       TraceLetter char Overlay
	       00
	      ]
 000D  0000			       TraceWord word ?; LevelRecI <>.
 000F  0000 0000 0000 0000	       Active EnvBlock <>
 0017  0000 0000 0000 0000	       Alternate EnvBlock <>
 001F  00			       Syntax ConditionRec <>
 0020  00			       LostDigits ConditionRec <>
 0021  00			       NoValue ConditionRec <>
 0022  00			       NotReady ConditionRec <>
 0023  00			       Error ConditionRec <>
 0024  00			       Failure ConditionRec <>
 0025  00			       Halt ConditionRec <>
 0026	      0007 [		       TrapName word 7 dup(?)
	       0000
	      ]
 0034  0000			       EventLevel word ?   ; Only used for Halt.
 0036  0000			       Condition word ?    ; As CONDITION bif result(C)
 0038	      0007 [		       ConditionDescription Vshape <>; As CONDITION bif result(D)
	       00
	      ] 00
 0040	      0007 [		       ConditionExtra Vshape <>; As CONDITION bif result(E)
	       00
	      ] 00
				      align 4; We move the inherited bit using doublewords.
 0048	      0000 [		       Inherit char Overlay; End of inherited.
	       00
	      ]
 0048  0000000000000000		      ClauseTime qword ?
 0050  0000000000000000		      ClauseLocal qword ?
 0058  0000000000000000		      PendingDescription qword ?
 0060  0000000000000000		      PendingExtra qword ?
 0068  0000			      LevelDO charp ?;  Level's CurrentDO held over call.
 006A  0000 0000		      StackSave Farp <>; To make save over DosExecute recursive.
 006E  0000			      File charp ?     ; Save which external file is source when external call made.
 0070  0000			      ProgScope Segp ? ; Saved values of constants, when external call.
 0072  0000			      VarScope Segp ?  ; Saved values of variables, when external call.
				      align 4
				     ;The Lshape is normally addressed a few bytes ($StrideV) down from its high end.
 0074	      0000 [		      Access word Overlay; MASM gets confused if this is attached to the LevelRec.
	       0000
	      ]
 0074  0000			      Flags LevelRec <>
 0076  0000			      UpLevel charp ?; Invoker's block.
 0078  0000			      Resume charp ? ; On return from invoke from here.
 007A  0000			      Arg0 charp ?   ; Parameters to this invoke.
				     Lshape ends
 = 007C				      $StrideL equ size Lshape
				     ; L. is for Lshape objects addressed by ss:[di+bp]; the level of the execution.
 = (Lshape ptr[bp+di-$StrideL+$S     L is <(Lshape ptr[bp+di-$StrideL+$StrideV])>
   trideV])
				     ; Lsi. is for Lshape objects addressed by ss:[si+bp]
 = (Lshape ptr[bp+si-$StrideL+$S     Lsi is <(Lshape ptr[bp+si-$StrideL+$StrideV])>
   trideV])
				     ; Lbx. is for Lshape objects addressed by ss:[bx]; the level of the execution.
 = ss:(Lshape ptr[bx-$StrideL+$S     Lbx is <ss:(Lshape ptr[bx-$StrideL+$StrideV])>
   trideV])

				     ; LoopsRec is used only in Dshape.
				     ;HasDot:1,      ; When DO X.=
				     ;HasDots:1,     ; When DO X.Y =
				     ;HasTo:1,
				     ;HasFor:1,
				     ;ByDown:1,      ; When control variable values are going down.
				     ;IsInterp:1     ; When block is for INTERPRET, not DO.
				     LoopsRec record LoopsPad:2,HasDot:1,HasDots:1,HasTo:1,HasFor:1,IsInterp:1,
				                     ByDown:1; ByDown last - see use in CompareTo

				     ; API_Enabled:1,   Controls "Variable Pool" interface.
				     ; NoSource:1,      $5.10.11, but no need to implement.
				     ; RandomSeeded:1,  Has the seed been initialized?
				     ; NotS9:1,         Off if numerics are 9 digit SCIENTIFIC.
				     ; The following are to do with compiling - they are off in execution.
				     ; LabelsBad:1,     On when the compile is of text from INTERPRET.
				     ; Repass:1,        When user overides Bif name.
				     ; FirstBetween:1,  On when parsing should start with a Between call.
				     ; EndSource:1,     Helps parser detect end-of-source.
				     ; BifCheck:1,      Tells whether Bif check failed, for compile time .
				     ; TraceIF:1,       Controls trace output.
				     ; ShowELSE:1,      Controls trace output.
				     ProgramRec record API_Enabled:1,
				        Repass:1,
				        LabelsBad:1,
				        FirstBetween:1,
				        EndSource:1,
				        BifCheck:1,RandomSeeded:1,NotS9:1,TraceIF:1,ShowELSE:1,PRSpare:6

				     ; InTypes:2     What are the types of the input operand(s)?
				     ; ResultType:2  Mark result on stack with its type.
				     ; AppendNum:1   When opcode is followed by a number.
				     ; AppendRef:1   When opcode (plus maybe number) is followed by a reference.
				     ; DownOne:1     On if operator leaves stack down one on when it started.
				     ; EndsClause:1  On if operator ends a clause. (Only for internal checks)
				     OperatorRec record InTypes:2,ResultType:2,AppendNum:1,AppendRef:1,DownOne:1,
				                        EndsClause:1

				     ; The Dtype byte is too complex to describe as individual flags. See equates.

 000E				     Jshape struc
 0000	      0007 [		      Valued Vshape <>                  ; Will be addressable Vsid. and J.
	       00
	      ] 00
 0008	      0000 [		      Pair dd 0 dup(?)                  ; Next two together.
	       00000000
	      ]
 0008  0000			      Lower Ushortp ?                   ; a subtree.
 000A  0000			      Higher Ushortp ?                  ; a subtree
 000C  0000			      KeyLen word ?                     ; Always a word of length. Chars may follow.
 000E	      0000 [		      Key char 0 dup(?)
	       00
	      ]
				     Jshape ends
 = 000E				     $StrideJ equ size Jshape
				     ; J. is for Jshape objects addressed by [si]; To look up tails.
 = (Jshape ptr[si])		     J is <(Jshape ptr[si])>
				     ; Jbx. is for Jshape objects addressed by [bx]; To look up tails.
 = (Jshape ptr[bx])		     Jbx is <(Jshape ptr[bx])>
				     ; Jdi. is for Jshape objects addressed by [di]; To look up tails.
 = (Jshape ptr[di])		     Jdi is <(Jshape ptr[di])>

				     TokVal record  GrpNdx:6,SubNum:2; Shape of $name
				     TokRec record X02:1, NdxbT:5, Aim:10
				     KeyRec record KeyFlags:3,EndList:1, KeyLen:4
				     ; Shapes for interpreting syntax tables. Ensure match with table generator.
				     ShiftRec record HasShift:1, ErrorAlone:1, CatFlag:1, HasKeys:1, Reference:1,
				                     Direct:1,Indexb:5, Index:5
				     ErrorRec record HasShiftOn:1, ErrorAloneOn:1, MajorField:8, MinorField:6
				     RedRec record HasShiftOff:1, HasAction:1, PruneCt:2, Rtype:2, Rstate:10
				     ; Every element on the parser stack will have the same size but the contents
				     ; are not always the same, except for State which is the reference state
				     ; needed by the parser mechanism.  The other fields are used for error
				     ; message data, and code generation.
				     ; Field order of Sshape is sensitive, matched to pushes that create an item.
				     ParserRec record ParserPad:12,DoRep:1,DoCV:1,Forever:1,DoDataHost:1
 0010				     Sshape struc
 0000  0000			      State word ?
 0002	      0000 [		      Parser word Overlay
	       0000
	      ]
 0002  0000			      ParserRec <>
				     ; Some of these fields could logically be overlaid but they are not, so that
				     ; logic is avoided in deciding what to push. (They are all pushed)
				     ; Actually that applies to just ClauseWas.
 0004  0000			      ClauseWas  word ?; Line number for message 10.n and 7.n
				      union
				       struct; This one for an operation. Element is made on basis that it is this.
 0006  0000			        Token Ushort ?; Numeric coding of the operation.
 0008  00000000			        Operation dword ?; ASCII coding with length ahead, eg 3,">>=".
 000C  0000			        Caller word ?; Resolved reference to what is to be invoked.
 000E  0000			        Parms Ushort ?; To compute how many arguments there are.
				       ends
				       struct; This overlay for info on a SELECT structure. (Also IF & DO)
				        JumpSite word ?; Records how Pcode jumps from WHEN test to WHEN test.
				                       ; (Also used by IF-ELSE)
				        SoFar charp Overlay; For TraceOnly
				        WhatCV charp Overlay; Control variable identification.
				        SelectSite word ?; Records how Pcode jumps from end of WHENs to end SELECT.
				       ends
				      ends
				     Sshape ends
				     ; S. is for Sshape objects addressed by [si+bp]; the parser stack.
 = (Sshape ptr[bp+si])		     S is <(Sshape ptr[bp+si])>
 = 0010				     $StrideS equ size Sshape
 = (Sshape ptr[bp+si+$StrideS])	     S1 is <(Sshape ptr[bp+si+$StrideS])>
 = (Sshape ptr[bp+si+2*$StrideS]     S2 is <(Sshape ptr[bp+si+2*$StrideS])>
   )
				     ParmsRec record ParmsMin:2,ParmsXtr:2,NonCheck:4
				     MiddleRec record NotLabel:1,SemiAfter:1,ValueBefore:1,
				       AbutOK:1,NoBlanks:1,ModEquals:1,EndClause:1,ImplicitValue:1,
				       CheckDO:1,TargetSymbol:1,Function:1,TakenConstant:1,LookLabel:1,
				       LookBin:1,DotOK:1,MRspare:1

				     ; More flags for clause level.
				     ; NotAssign:1,     Off includes DO j=
				     ; ClauseSet:1,     On when ClauseLine set.
				     ; Tailed:1,        Tells Lookup that compound name is on stack.
				     ; WasTailed:1,     Last Lookup was of tailed.
				     ; WasUpper:1,      Remembers UPPER option on PARSE.
				     ; OffFlag:1,       Remembers OFF of CALL OFF.
				     ; Condition:1,     Remembers there was a condition on CALL ON or SIGNAL ON.
				     ; Append:1,        Remembers there is APPEND during ADDRESS.
				     ; Signal:1,        Remembers when the verb was SIGNAL
				     ; CVar:1,          Remembers when there is a control variable on DO.
				     ; Repit:1,         Remembers when there is repetition part in DO.
				     ; PosEq:1,         Grouped with PosPlus & PosMinus - triggers in PARSE.
				     ; InParse:1,       On during Parse instruction. (Off when escape)
				     ; WasParse:1,      On during Parse instruction.
				       ClauseRec record WasUpper:1,OffFlag:1,Condition:1,Append:1,Signal:1,
				       ClauseSet:1,CVar:1,Repit:1,PosEq:1,NotAssign:1,
				       WasParse:1,InParse:1,Tailed:1,WasTailed:1,
				       PosPlus:1,PosMinus:1; Using 5-gap of PosEq and PosPlus.

				     ; Format5:1,       On for FORMAT bif with five args.
				     ; AssignDO:1,      On when assignment is for DO.
				     ; ForExpose:1,     On while executing EXPOSE.
				     ; FromIterCV:1,    Used when DO loop execution has dotted control variable.
				     ; ForBIF:1,        TargetMsg without expanding inserts. Needed for ERRORTEXT.
				     ; TokIsValue:1     Conditions error message insert.
				     ; ExpRange:1,      Number failure due to exponent oversize.
				     ; Description:1,   Used in msg production.
				     ; Compacted:1,     Used to detect a loop within Compaction.
				     ; BcodeInterpret:1, On when INTERPRET executing on behalf of Bcode.
				     ; MapOnly:1,       Used by Debug for when to fill allocations.
				     ; ParseUpper:1,    On when PARSE has UPPER, in execution.
				     ; ParseTrace:1,    On when PARSE tracing, in execution.
				     ; SourceFiles:1, On when source files rather than ordinary data files relevant.
				     ; BoolBefore:1,    On to prevent code generated for trace making undue prefix.
				     ; WasDropped:1     On to tell us that last load of variable found it dropped.
				     CancelRec record Format5:1,AssignDO:1,ForExpose:1,FromIterCV:1,
				      ForBIF:1,TokIsValue:1, ExpRange:1, Description:1, Compacted:1,
				      BcodeInterpret:1, MapOnly:1, ParseUpper:1, ParseTrace:1, SourceFiles:1,
				      BoolBefore:1, WasDropped:1

				     ; Dual:1,          On when the purpose of compiling is clause by clause run.
				     ; DualPending:1,   On when DualGen is to be set later.
				     ; DualGen:1,       On when Pcode for trace events is being made.
				     ; DualOnly:1,      On when Pcode for Dual differs from original.
				     GenRec record Dual:1,DualPending:1,DualGen:1,DualOnly:1,
				      GenSpare:12

				     ; Experience may show how many allocations the Dos space will be in.
 = 000A				     $Ashapes equ 10
				     ; Shortest code for addressing Header fields is varied. If mov with ax, then
				     ; 2-byte offset is reasonable because there are dedicated opcodes. Else it
				     ; will usually pay to specify indexing with a zero-value index because that
				     ; uses a one byte offset. The index can be bp when there is segment override.
				     ; Otherwise it may pay to zero si especially for the purpose.
 0010				     Hshape struct
 0000	      0000 [		      Hdw0 dword Overlay; This and next dword used when making a copy of a segment.
	       00000000
	      ]
 0000  0000			      SegSize Ushort ?  ; Bytes including our header.
				     ; The segments for different purposes need different subsets of these fields.
				     ; They all need SegSize because Compaction uses it.
				     ; The stack segment needs only SegSize because it has its own routine for
				     ; expansion on demand.
				     ; The pool-type segments only need SegSize&Bump; their size changes only when
				     ; the relevant Vars or Consts segment changes size.
 0002  0000			      Bump Ushort ?   ; Number of new bytes added each expansion
				     ; Things that grow independently (Symbols, Vars, Consts, SysFiles, and each
				     ; compound variable) need Avail and Trigger.
 0004  0000			      Avail Ushort ?  ; Place, below Trigger, for new-stuff-at-end.
 0006  0000			      Trigger Ushort ?; Limit before extension.
				     ; Link identifies the type of segment and allows Zone updates.
 0008  0000			      Link Ushort ?   ; To find slot in Zone that addresses this segment.
 000A	      0000 [		      TreeBin Ushort Overlay ; Field reused in the constants lookup segment.
	       0000
	      ]
 000A	      0000 [		      Original Ushort Overlay ; Field reused in the Pcode segment.
	       0000
	      ]
				                              ; (End of original Pcode.)
 000A  0000			      UpPool Segp ?   ; When segment is a pool. (Also used as chain of free ones)
 000C  0000			      Probe Ushort ?  ; Place to start search if this is a lookup type segment.
 000E	      0000 [		      TreeProg Ushort Overlay ; Field reused as root for source file names lookup.
	       0000
	      ]
 000E  0000			      Labels Ushort ? ; Alternative needed since label and constant trees same seg.
				     Hshape ends
 = 0010				     $StrideH equ size Hshape
				     ; H. is for Hshape objects addressed by [si]; Headers on segments (si=0).
 = (Hshape ptr[si])		     H is <(Hshape ptr[si])>
				     ; Hd. is for Hshape objects addressed by ds:; Headers on segments.
 = (Hshape ptr ds:[0])		     Hd is <(Hshape ptr ds:[0])>
				     ; He. is for Hshape objects addressed by es:[bp]; Headers on segments.
 = (Hshape ptr es:[bp])		     He is <(Hshape ptr es:[bp])>
				     ; Hf. is for Hshape objects addressed by fs:[bp]; Headers on segments.
 = (Hshape ptr fs:[bp])		     Hf is <(Hshape ptr fs:[bp])>
				     ; Hg. is for Hshape objects addressed by gs:[bp]; Headers on segments.
 = (Hshape ptr gs:[bp])		     Hg is <(Hshape ptr gs:[bp])>

				     ; Zshape is resized by StackSafe, not by MoreSpaceEs, so doesn't need all
				     ; the Hshape header. It does need SegSize in correct location though because
				     ; Compaction treats it like a headed segment.
 1378				     Zshape struc
 0000	      0000 [		      w word Overlay       ; Not used in this position - always used like Z.w[index]
	       0000
	      ]
 0000  0000			      SegSize word ?       ; Bytes.
 0002	      0000 [		      ProgramCancel dword Overlay; Used for zeroing.
	       00000000
	      ]
 0002  0000			      Program ProgramRec <>; Program flags
 0004  0000			      Cancel CancelRec <>  ; Flags for transient logic.
 0006  0000			      Stack word ? ; Current variable for Compaction. (Top of soft stack-$StrideV)
 0008  0000			      ClauseLine Ushort ?  ; Line this clause starts on. (First token)
 000A  0000			      Middles MiddleRec <> ; Extension of Clause. Keep with Clause for zeroing.
 000C  0000			      Clause ClauseRec <>  ; Compile time clause flags
 000E  0000			      Gen GenRec <>        ; Flags for control of what gets compiled.
 0010  0000			      KWMiddle charp ?     ; List of search keywords.
 0012  0000			      KWFound Ushort ?     ; Latest keyword found.
 0014  0000			      Stdout Handle ?      ; A constant but potential redirection.
 0016  0000			      Stderr Handle ?      ; A constant but potential redirection.
 0018  0000			      SourceHandle Handle ?
 001A  0000			      HowInvoked Ushort ?  ; Length of COMMAND/FUNCTION/SUBROUTINE.
 001C  00			      Radix byte ?         ; Normally has value 10.
 001D	      0006 [		      AxAsNum char 6 dup(?); For result of Ax2DsSiCx
	       00
	      ]
 0023	      0005 [		      Tag char 5 dup(?)    ; For trace. Joined to AxAsNum
	       00
	      ]
 0028  00000000			      Seed dword ?         ; For Random bif.
 002C  0000			      ParseResetSp charp ? ; Where the parser started work on the hard stack.
 002E  0000			      XCycleResetSp charp ?; Where the execution started work on the hard stack.
 0030  0000			      Dumper word ?        ; Handle when we are writing Pcode to disk.
 0032  0000			      Stash word ?         ; Various
 0034  0000			      Resolved charp ?     ; Result of Lookup.
 0036  0000			      Cursor charp ?       ; Offset into code. (Compile time)
 0038  0000			      Stream charp ?       ; The current stream.  In SysFiles segment.
 003A  0000			      Queue  charp ?       ; The FileBx for CRXREXX.QUE in SysFiles segment.
				     ; Compaction exploits these Segp things being adjacent.
 003C	      0000 [		      InsSource dword Overlay
	       00000000
	      ]
 003C	      0000 [		      SysFile dword Overlay
	       00000000
	      ]
 003C  0000			      File charp ?         ; Current external file of source.
 003E  0000			      SysFiles Segp ?      ; DOS interface
 0040  0000			      Consts Segp ?        ; To an array, fixed size per constant.
 0042  0000			      Vars Segp ?          ; To an array, fixed size per variable.
 0044  0000			      ProgScope Segp ?     ; Shadow of Consts. Order is exploited, see MoreSpaceEs.
 0046  0000			      VarScope Segp ?      ; Shadow of Vars.
 0048  0000			      Symbols Segp ?       ; To a write-once for names and constants.
 004A  0000			      Code Segp ?          ; To the internal code.
 004C  0000			      Zone Segp ?          ; Convenient place for Compaction to find address.
				     ; End of section organised for Compaction.
 004E  0000			      Stem Segp ?          ; Used when a stem wants MoreSpaceEs.
 0050  0000			      PoolPool Segp ?      ; Spare VarScope copies.
 0052  0000			      Level charp ?        ; Latest level of invocation.
 0054  0000			      Base0 charp ?        ; Parser time, for checking how many operands pushed.
 0056  0000			      CurrentDO charp ?    ; Junction of DO blocks and stacked values.
 0058  0000			      ResumeP word ?       ; Save Pcode address while Bcode execution.
 005A	      0000 [		      ResumeDF dword Overlay
	       00000000
	      ]
 005A  0000			      ResumeD word ?       ; Digits() preserved over Bcode execution.
 005C  0000			      ResumeF word ?       ; Fuzz() preserved over Bcode execution.
 005E  00			      ResumeS char ?       ; S/E mode preserved over Bcode execution.
				     ; Section set by ZoneNumerics.  (cf NotS9)
 005F	      0000 [		      DigitsFuzz dword Overlay
	       00000000
	      ]
 005F  0000			      Digits Ushort ?      ; Current digits().
 0061  0000			      Fuzz Ushort ?        ; Current fuzz().
 0063  00000000			      Ceiling dword ?      ; 1eN where N is current digits().
 0067  00000000			      DivBreak dword ?     ; To test for enough digits made in division.
 006B  00000000			      TwiceDigits dword ?  ; 2*N where N is current digits().
 006F  0000			      UseGeneral Ushort ?  ; On for mandatory use of ArithGeneral
				     ; end section set by ZoneNumerics.
				     ; Inserts for messages are divided into (a) those that stay constant or which
				     ; we always want to set when compiling, and (b) those that might be undesirably
				     ; changed when we rescan during execution to find the line number for a message.
				     ; The latter are in a block for save/restore.
				     ; "Ins..." is used as help to identify.
 0071  0000			      InsLine Ushort ?     ; Value for insert
 0073  00			      InsBif byte ?        ; Bif offset.
 0074  00000000			      InsOperator dword ?  ; Actual chars.
 0078  0000			      InsUnqual charp ?    ; Offset in SysFiles. For <source> insert, msg 43.1
 007A	      0000 [		      Insert InsBlock <>   ; For message. The saved copy is Inserts.
	       0000
	      ] 00 00 0000
	      0000 [
	       0000
	      ] 0000 0000 00
	      00
	      0000 [
	       00
	      ] 00 0000 0000
	      0000 0000 0000
 008F	      0000 [		      Inserts InsBlock <>
	       0000
	      ] 00 00 0000
	      0000 [
	       0000
	      ] 0000 0000 00
	      00
	      0000 [
	       00
	      ] 00 0000 0000
	      0000 0000 0000
 00A4  00			      SignM byte ?         ; Of mantissa
 00A5  00			      SignE byte ?         ; Of exponent
 00A6  0000			      MantPos charp ?      ; Where mantissa starts.
 00A8  0000			      MantPosZi charp ?    ; Beyond end
 00AA  0000			      ExpPos charp ?       ; Where exponent starts.
 00AC  0000			      ExpPosZi charp ?     ; Beyond end
 00AE  0000			      ExpSign word ?
 00B0  0000			      MantSize word ?
 00B2  00			      OpIs byte ?          ; Remembers operator in execution of it.
 00B3  00			      Flags byte ?         ; In BifTypes
 00B4  00			      BifParmsHi byte ?    ; For Bifs to test how many parameters on instance.
 00B5  00			      BifByte byte ?       ; Combines bif number and a parms count.
				     ; Trace section
 00B6  00000000			      TraceAlign dword ?; Beginning of line of source as offset on source file.
 00BA  00000000			      TraceSource dword ?; Beginning of section of source to be shown.
 00BE  00000000			      TraceEnds dword ?; End of section of source to be shown.
 00C2  0000			      TraceSourceColumn word ?
 00C4  0000			      TraceEndsColumn word ?
 00C6  0000			      DualCode charp ?; Beginning of Pcode for one clause.
 00C8  00			      TraceOp byte ?   ; Trace info for current Pcode operation.
 00C9  00000000			      Relative dword ?; Adjustment between position on file and position in buffer.
 00CD  00000000			      RelativeNow dword ?; Used when Serial contains section of source.
 00D1  0000			      Continue word ?; Pcode offset of next clause.
 00D3  0000			      StackX word ?; Hold StackDi over parsing.
 00D5  0000			      TraceLine word ?; Last shown ClauseLine.
 00D7  00000000			      InhibitTrace dword ?
 00DB  00000000			      InhibitPauses dword ?
 00DF  0000			      Target word ?; Used to carry branch value from original pcode to dual.
				     ; Trace section end
				     ; Main also [ Tokens
 00E1  0000			        Scanp charp ?        ; Where the scan has reached. Zero when executing.
 00E3  0000			        EndUsedBuffer charp ?; Where marker to interrupt scan is placed.
 00E5  0000			        NearEnd charp ?      ; Towards end of buffer.
				     ;]
 00E7  00			        CatOp byte ?         ; $pCat or $pAbut
 00E8  00			        RadixBadWhite byte ?
 00E9  0000			        BackExponent charp ?
 00EB  0000			        LastContent charp ?
 00ED  0000			        CommaLine word ?; NonZero if previous line ended with non-continuation comma.
 00EF  0000			        Condition Ushort ?   ; Latest condition keyword.
 00F1  0000			        UntilPlace Ushort ?  ; Place in Pcode. Held just over UNTIL expression.
 00F3  0000			        StemSym charp ?      ; Temp for A.B.C type Lookup
 00F5  0000			        SoFar word ?         ; Temp for A.B.C type Lookup
 00F7  0000			        PcodePos word ?      ; Used by ConstValue
 00F9  0000			        TraceOnly word ?     ; Used to detect 'trace only' labels.
 00FB  0000			      CompareAt word ?       ; For detecting compare Pcode optimizing.
 00FD  0000			      StackHi charp ?        ; Used for compound lookup.
 00FF  0000			      StackLo charp ?        ; Also for function arguments.
 0101  0000			      OnSoft charp ?         ; Where stacked target symbols start. PARSE compiletime.
				                             ; Tokens tells Pcode.
 0103  0000			      Tail charp ?           ; Work when Pcode made for tailed.
 0105  0000			      TokNum word ?          ; As tokenizer makes, parser sees.
 0107  0000			      TokNow word ?
 0109  0000			      TokWas word ?
 010B  0000			        TokData word ?       ; Data for parser derived from TokNum
 010D  0000			        Synch charp ?        ; Instruction pointer, into Pcode, for synching.
 010F  0000			        Lines Ushort ?       ; Count of lines
 0111  0000			        MsgBegin charp ?     ; Where sub-messages concatenated.
 0113  0000			        MsgSoFar charp ?     ; As sub-messages concatenated.
 0115  0000			        PreZi charp ?        ; End of message before expanding insertions.
 0117	      0000 [		        TargetMajMin word Overlay; This is message being output.
	       0000
	      ]
 0117  00			         TargetMinor byte ?
 0118  00			         TargetMajor byte ?
				        struc                ; See DOS command 4Bh
 0119  0000			         EnvSeg Segp ?
 011B  0000 0000		         ForPSP Farp <>
 011F  0000 0000		         Fcb1 Farp <>
 0123  0000 0000		         Fcb2 Farp <>
				        ends
 0127  0000			        AtPause charp ?       ; NYI
 0129  00			        ArgsB byte ?; For Arg() of BCycle bif.
 012A  0000			        ArgsB0 charp ?; For Arg(exp) of BCycle bif.
				     ; Workspace for the verbs can be shared.
				        struct; For Parse
 012C	      0000 [		         Parsee FarpX <>
	       00000000
	      ] 0000 0000
	      0000 [
	       0000
	      ] 0000
 0132  0000			         ParseeNum Ushort ?; Counts arguments for commas in parsing template.
 0134  0000			         PattLenEtc Ushort ?  ; Length of pattern. Temp for cursor.
 0136  0000			         BreakStart charp ?; Beginning of previous section delimiter.
 0138  0000			         BreakEnd charp ?  ; End of previous section delimiter.
				        ends
 013A  0000 0000 0000 0000	        EnvNow EnvBlock <> ; Used to execute ADDRESS
 0142  0000			      CatTotal word ?      ; Used by Abut$$ & Cat$$
 0144  0000			      LastTarget word ?    ; For detecting when to make $pUnstore.
 0146  0000			      NewJshape charp ?    ; Used by FindKey.
 0148  0000			      FromDos charp ?; A slot addressing a segment DOS gave us. (Cat optim. uses)
 014A  0000			      FromDosWas word ?; To test for cycled through them.
 014C  0000			      FromDosZi charp ?; Bound for FromDos
 014E	      000A [		      MemoryTable Ashape $Ashapes dup(<>)
	       0000 0000 0000
	      ]
 018A	      0000 [		      MemoryTableZi byte Overlay; Just used as an offset.
	       00
	      ]
 018A  0000			      Left charp ?     ; For compaction.
 018C  0000			      Right charp ?    ; For compaction.
 018E  00000000			      AllocBase dword ?; For compaction.
				     ; Grouping matters here.
 0192  0000			      DsWas Segp ?
 0194  0000			      DsNew Segp ?
 0196  0000			      EsWas Segp ?
 0198  0000			      EsNew Segp ?     ; Sometimes reloaded from.
 019A  0000			      FsWas Segp ?
 019C  0000			      FsNew Segp ?
 019E  0000			      GsWas Segp ?
 01A0  0000			      GsNew Segp ?
				     if Debug
				     endif
 01A2  0000			      DigitCount Ushort ?  ; Checking radix string, Compile and execute.
				     ; Byte before Serial better not accidentally look like $Eof.
 01A4  00			      SerialNow byte ? ; Indicates what is in Serial.
 01A5	      11C8 [		      Serial char $SourceBufferSize dup(?)
	       00
	      ]
				      align 4
 1370	      0007 [		      CommandArg Vshape <>; Parameters from Command line.
	       00
	      ] 00
				     Zshape ends
				     ; Z. is for Zshape objects addressed by [bp]; the Zone
 = (Zshape ptr[bp])		     Z is <(Zshape ptr[bp])>

 0053				     Yshape struc
 0000  00000000			      dword ?; Overlays jmp.
 0004  00000001			      N1 dword 1
 0008  0000000A			      N10 dword 10
 000C  00000064			      N100 dword 100
 0010  000003E8			      N1000 dword 1000
 0014  00002710			      N1e4 dword 10000
 0018  000186A0			      N1e5 dword 100000
 001C  000F4240			      N1e6  dword 1000000
 0020  00989680			      N1e7 dword 10000000
 0024  05F5E100			      N1e8 dword 100000000
 0028  3B9ACA00			      N1e9 dword 1000000000
 002C  0019660D			      N1664525 dword 1664525; For Random
				      Assert $Limit_ExponentDigits eq 9
 0030  3B9AA2F1			      ExponHi dword 1000000000-$Limit_Digits
 0034  C4653602			      ExponLo dword -1000000000+2
 0038  0000			      Cseg Segp ?          ; To be where the machine code is.
 003A	      0000 [		      DOS dword Overlay; Default ADDRESS
	       00000000
	      ]
 003A	      0001 [		       db "DOS "
	       44 4F 53 20
	      ]
 003E	      0001 [		      DosPool db "ENVIRONMENT"; Pool name
	       45 4E 56 49 52
	       4F 4E 4D 45 4E
	       54
	      ]
 0049	      0001 [		       db "..."; Joined to following CrLf
	       2E 2E 2E
	      ]
 004C  22			      DqCrLf db '"'
 004D  0D 0A			      CrLf db 13,10
 004F  0000 0000		      StackSave Farp <>    ; To recover when only CS:IP survives.
				     Yshape ends
				     ; Y. is for Yshape objects addressed by [bp]; the constants.
 = (Yshape ptr cs:[bp])		     Y is <(Yshape ptr cs:[bp])>
 = (Yshape ptr cs:[2*ecx+ebp])	     Ycx2 is <(Yshape ptr cs:[2*ecx+ebp])>
 = (Yshape ptr cs:[si])		     Ysi is <(Yshape ptr cs:[si])>

				     ; These equs should follow the declares of shapes they depend on.
 = 0014				     $SizeConstsHeader equ $StrideH+4
				     ; Configuration variables (used by the implementation but not seen by the user's
				     ; program) are in the order the utility that makes Bcode has numbered them. The
				     ; $Reserved string matches.
				     ; Also constants & reserved variables that are always in ProgScope area.
 = 0014				     $?Omitted equ $SizeConstsHeader
 = 001C				     $?MN equ $?Omitted+$StrideV
 = 0024				     $?RS equ $?MN+$StrideV
 = 002C				     $?RESULT equ $?RS+$StrideV
 = 0034				     $?RC equ $?RESULT+$StrideV
 = 003C				     $?SIGL equ $?RC+$StrideV
 = 0044				     $?SysVars equ $?SIGL+$StrideV
				     ; See $Reserved for number of vars here.
 = 000B				     $SysCount equ 11
 = 0000				     ?OUTCOME equ 0; These are the numbers used in Bcode references.
 = 0044				     $?OUTCOME equ $?SysVars; These are the offsets used in machine code references.
				     ; ie where the system variables are in the ProgScope segment.
 = 0002				     ?BIF equ 2
 = 004C				     $?BIF equ $?SysVars+$StrideV
 = 0004				     ?STREAM equ 4
 = 0054				     $?STREAM equ $?SysVars+2*$StrideV
 = 0006				     ?STREAMSTATE equ 6
 = 005C				     $?STREAMSTATE equ $?SysVars+3*$StrideV
 = 0008				     ?RESPONSE equ 8
 = 0064				     $?RESPONSE equ $?SysVars+4*$StrideV
 = 000A				     ?LINEIN_POSITION equ 10
 = 006C				     $?LINEIN_POSITION equ $?SysVars+5*$StrideV
 = 000C				     ?CLAUSETIME equ 12
 = 0074				     $?CLAUSETIME equ $?SysVars+6*$StrideV
 = 000E				     ?CLAUSELOCAL equ 14
 = 007C				     $?CLAUSELOCAL equ $?SysVars+7*$StrideV
 = 0010				     ?MONTHS equ 16
 = 0084				     $?MONTHS equ $?SysVars+8*$StrideV
 = 0012				     ?WEEKDAYS equ 18
 = 008C				     $?WEEKDAYS equ $?SysVars+9*$StrideV
 = 0014				     ?STARTTIME equ 20
 = 0094				     $?STARTTIME equ $?SysVars+10*$StrideV
 = 009C				     $?Nine equ $?SysVars+11*$StrideV
 = 00A4				     $?Zero equ $?Nine+$StrideV
 = 00AC				     $?Null equ $?Zero+$StrideV
 = 00B4				     $?E equ $?Null+$StrideV
 = 00BC				     $?S equ $?E+$StrideV
				     ; These are variables that are always in current VarScope area.
 = 0010				     $?Discard equ $StrideH; Takes two because ends in dot.
 = 0020				     $?RESULTx equ $?Discard+2*$StrideV
 = 0028				     $?RCx equ $?RESULTx+$StrideV
 = 0030				     $?SIGLx equ $?RCx+$StrideV
				     ; Not in the table, but we need to use some character as an end-used-buffer
				     ; mark. (Saves checking address repeatedly) Using Linefeed helps comment scan.
 = 000A				     $EndBuffer equ $Lf
 = 0000				     $Whole     equ 0
 = 0004				     $WholeGE   equ 4
 = 0008				     $WholeGT   equ 8
 = 000C				     $Num       equ 12
 = 0010				     $M090      equ 16
 = 0014				     $WholeNum  equ 20
 = 0018				     $Pad       equ 24
 = 001C				     $Hex       equ 28
 = 0020				     $Stream    equ 32
 = 0024				     $Bin       equ 36
 = 0028				     $Symbol    equ 40

				     AllocAppend macro Goes:req
				      push si
				      mov si,Z.FromDos; The current allocation source.
				      mov ax,A.Fr.Pt
				      sub ax,V.Len
				      cmp ax,V.Pt
				      jne Goes
				     ; Here if offset fits. Also need to check same segment.
				      mov ax,V.Sg
				      cmp ax,A.Fr.Sg
				      jne Goes
				      mov es,ax
				     ; The segment could be full, but if possible take the extra.
				      mov ax,V.Pt
				      add ax,cx
				      jc Goes
				      cmp ax,A.Amount
				      ja Goes
				      mov A.Fr.Pt,ax
				      sub ax,cx
				      mov V.Len,cx
				      endm
				     ; Here are the numbers which go in the Attributes table.
				     ; Most of this is just for compiling but some equates are relevant to
				     ; execution so those have been put in declares.inc
				     ; First two bits for quick test of Whitespace, Letter, Digit, Special
				     ; $White equ 0 $Digit equ 64 $Letter equ 128 $Special equ 192
				     ; When it is not Special, the remaining bits can be flags.
				     ; When it is Special, there is a switch indexed by the rest of the byte.
				     ; This corresponds to the right six bits of TokVal so we can test in groups.
				     ; In practice it is "+ or -" that gets tested this way.
 = 00FC				      $Group equ 0FCh
 = $AttribPlus and $Group	      $PlusMinus equ $AttribPlus and $Group
				     ; The bits to the right of $White are free, and we could distinquish the
				     ; reak blank from blank equivalents but there seems no reason to do so.
				     ; We are short of a bit for letters. It would be nice to have flags for
				     ; conveniently testing "Ee", "Xx", "Bb", "01", ok as hex digit, having upper
				     ; case, and real-letter, as well as $Letter for the purposes of a symbol.
				     ; Something has to be left out, and real-letter would only be used in
				     ; DATATYPE().
				     ; We are short of a bit for digits. It is highly desirable to be able to scan
				     ; a number using lods and not have to refer to the value before xlat (since
				     ; xlat overwrites al). So we would like to have the value of the digit in the
				     ; low order of the attribute, as opposed to subtracting character '0' from the
				     ; raw character. That leaves two, which gives us difficulty if we want
				     ; OK-for-radix-B, OK-for-radix-X, and a Lower-case-letter. (Since we would
				     ; like to test the latter in the symbol recognition loop without distinquishing
				     ; letter/digit first.)
				     ; The solution seems to be to invert the lowercase flag. Then with blanks and
				     ; specials out of the way (jpe), the upperableness can be tested as zeroness
				     ; of Digit flag and NonUpable flag, together.
				     ; So the scheme for Letter-or-Digit is to make the right nibble dependent on
				     ; whether letter or digit, leaving two bits for OK-for-radix.
 = 0020				      $OKb equ 32
 = 0010				      $OKx equ 16
				     ; For letters:
				     ; $NonUpable equ 8 $Bb equ 4 $Xx equ 2 $Ee equ 1
				     ; $Lowercase equ $Digit+$NonUpable; Use jnz avoiding uppering.
				     ; These values above $STRING go through switching like specials but are not
				     ; seen by the parser.
 = 0027				     $LineFeed equ $Eq-4
 = 0009				     $Invalid equ $UnAccept+1
 = 000A				     $Colon equ $UnAccept+2
 = 00D8				     $AttribAnd equ $Special+$And
 = 00D5				     $AttribOr equ $Special+$Or
 = 00EB				     $AttribEq equ $Special+$Eq
 = 00E4				     $AttribMinus equ $Special+$Minus
 = 00ED				     $AttribLt equ $Special+$Lt
 = 00F0				     $AttribGt equ $Special+$Gt
 = 00D2				     $AttribSlash equ $Special+$Slash
 = 00DC				     $AttribComma equ $Special+$Comma
 = 00E7				     $AttribLine equ $Special+$LineFeed
 = 00E5				     $AttribPlus equ $Special+$Plus
 = 00D1				     $AttribStar equ $Special+$Asterisk
 = 00FF				     $NoMatch equ $Special+63; No character has these attributes.

				      Assert 1 shl $ShiftV eq $StrideV
				      Assert $StrideL eq Lshape.Access+$StrideV
				     if Debug
				     endif

				     ;------------------------------------------------------------------------------
				     ; This is the entry from a command line invocation. Only the code is available.
				     ;------------------------------------------------------------------------------
 0000				     Startup:; ebp zero for si+bp di+bp addressing modes, and general source of zero.
 0000   2   FC			      cld
 0001   1   66| 33 ED		      xor ebp,ebp
 0004   3   2E: 8C 4E 38	      mov Y.Cseg,cs; For easy comparison.
				     ; Give up if there isn't enough space to control giving a message.
 0008   1   BB 0200		      mov bx,$InitStackSize/16
 000B   1   B4 48		      mov ah,$DosAllocate
 000D  30   CD 21		      int 21h
				     ; AL only becomes return code of the command, so only major part of msg number.
 000F  3,1  73 05		      jnc @F
 0011   1   B0 05		      mov al,5
 0013   3   E9 0000 E		      jmp ExitDOS
 0016				      @@:
				     ; Change stack to use allocated space.
 0016   3p  8E D0		      mov ss,ax; Hardware prevents interrupt here.
 0018   1   BC 2000		      mov sp,$InitStackSize
				     if 0
				     endif
 001B   3   1E			      push ds; Now ss:bp addressing the Zone. ds is Dos Program Segment Prefix
				     ;------------------------------------------------------------------------------
				     ; Here is the once-only Zone initialization.
				     ;------------------------------------------------------------------------------
				     if 1
 001C   1   B0 00		      mov al,0
 001E   1   B9 1378		      mov cx,(sizeof Zshape)
				      z di
 0021   1   8B FD		  1           mov di,bp
				      mv es,ss
 0023   3   16			  1   push ss
 0024   3p  07			  1   pop es
 0025   5n  F3/ AA		      rep stosb
				     endif
				     ; !! Stderr really 2 but we want redirection.
 0027   1   C7 46 14 0001	      mov Z.Stdout,1
 002C   1   C7 46 16 0001	      mov Z.Stderr,1
 0031   1   C6 46 1C 0A		      mov Z.Radix,10
 0035   1   C6 46 23 20		      mov Z.Tag,' '
 0039   1   C6 46 27 20		      mov Z.Tag+4,' '
				      z Z.SerialNow
 003D   1   C6 86 01A4 00	  1         mov Z.SerialNow,0
				      z Z.Scanp
 0042   1   89 AE 00E1		  1           mov Z.Scanp,bp
				      z Z.Insert.Digits
 0046   1   89 AE 0089		  1           mov Z.Insert.Digits,bp
				      z Z.LastTarget
 004A   1   89 AE 0144		  1           mov Z.LastTarget,bp
				      z Z.Level
 004E   1   89 6E 52		  1           mov Z.Level,bp
 0051   1   C7 46 06 1370	      mov Z.Stack,Zshape.CommandArg
				     ; Size of stack can be changed later, so keep track within it.
 0056   1   C7 46 00 2000	      mov Z.SegSize,$InitStackSize
 005B   3   8C 56 4C		      mov Z.Zone,ss
				      z Z.ProgramCancel
 005E   1   66| 89 6E 02	  1             mov Z.ProgramCancel,ebp
				      z Z.Gen
 0062   1   89 6E 0E		  1           mov Z.Gen,bp
 0065   3   E8 0000 E		      call InitMemory; Acquire from DOS for our allocations.
				     ; Initialize the compound variable used for interfacing with Dos.
 0068   1   B9 0100		      mov cx,256
 006B   1   8B D9		      mov bx,cx
 006D   1   BF 003E		      mov SegOffDi,Zshape.SysFiles
 0070   3   E8 0000 E		      call InitSegDs
				     ; It will be extended like an ordinary compound.
 0073   1   C7 06 0008 004E	      mov Hd.Link,Zshape.Stem
				     if CD
				     endif
				     ; Scan the command line parameters.
				     ; Put line as a Rexx variable on the stack. (Above item for the command args)
				     ; Length of parameters is at 128 in PSP.
 0079   3p  1F			      pop ds
 007A   3   E8 0000 E		      call UpStack
 007D   1   BE 0080		      mov si,128
 0080   5   AC			      lodsb
 0081   3   0F B6 C8		      movzx cx,al
 0084   3   E8 0000 E		      call VasDsSiCx
				     ; Use a routine (compiled from Rexx at build time) to divide that into
				     ; the filename to be invoked and the parameter for that invokation.
				     ; The latter returned to Z.CommandArg and the former on the stack.
 0087   1   89 76 58		      mov Z.ResumeP,si; Any non-zero to tell LinkBcode "not a call from Pcode".
				     ; We have no level block yet, but the Bcode will do arithmetic and access
				     ; the Zone fields normally set by taking Digits() etc from the level block - see
				     ; ZoneNumerics.
				      move Z.Ceiling,Y.N1e9; Will be enough for now.
 008A   1   66| 2E: 8B 46 28	  1      mov eax,Y.N1e9
 008F   1   66| 89 46 63	  1      mov Z.Ceiling,eax
				      mv gs,cs
 0093   3   0E			  1   push cs
 0094   3p  0F A9		  1   pop gs
 0096   1   BA 0000 E		      mov dx,offset LINESPLIT
 0099   3   E8 0000 E		      call LinkBcode
 009C   1   89 7E 06		      mov Z.Stack,StackDi
				     if MemCheck
				     endif
 009F   3   E9 0000 E		      jmp Command

				     ;------------------------------------------------------------------------------
				     ; Once (fast-form) Pcode has been satisfactorily made from the source file, it
				     ; is retained.
				     ;------------------------------------------------------------------------------
 00A2				     Compiler:; Parsing/Generating is done by using Cycle as a subroutine.  The
				     ; linkage mechanism is a jmp, after recording SP and normal-return.  This allows
				     ; easy transfer to Raise if parsing finds an error.
				      z Z.Synch; Non zero when not making Pcode.
 00A2   1   89 AE 010D		  1           mov Z.Synch,bp
				      z Z.TraceOnly
 00A6   1   89 AE 00F9		  1           mov Z.TraceOnly,bp
 00AA   1   C7 46 36 0010	      mov Z.Cursor,$StrideH; Where to start putting new Pcode.
 00AF   3   E8 0000 E		      call Compiling

				     ; When a Bif name is used as a label, it can be necessary to start all over
				     ; again on the source. The array for constants is not reset (that is where
				     ; the fact of labelness was recorded) and there is no reason to reset the
				     ; segments for variables and symbols. The Pcode is reset because it is that
				     ; new code the repass is for.

 00B2   8   0F BA 76 02 0E	      btr Z.Program,Repass
 00B7  3,1  73 32		      jnc OnePass
				     ; For a repass we need to leave all the labels that turned out
				     ; to be non-bif (even if spelled as a bif) marked as non-bif.
				     ; (But not in a usual way or the second pass will see them as
				     ; duplicated labels.)
 00B9   3p  8E 5E 40		      mov ds,Z.Consts
 00BC   1   BB 0014		      mov ArrayBx,$SizeConstsHeader
 00BF   3p  8E 46 44		      mov ProgEs,Z.ProgScope
 00C2				     RepassB:
 00C2   2   26: 80 7F 07 8B	      cmp Vbxe.Dtype,$Label
 00C7  3,1  75 11		      jne @F
 00C9   1   26: 8B 07		      mov ax,Vbxe.LabelValue
				      TestReg ax
 00CC   1   85 C0		  1         test ax,ax
 00CE  3,1  74 0A		      jz @F
 00D0   1   83 F8 B9		      cmp ax,$BifBase
 00D3  3,1  73 05		      jae @F
 00D5   1   26: C7 07 0001	      mov Vbxe.LabelValue,1
 00DA				      @@:
 00DA   1   83 C3 08		      add ArrayBx,$StrideV
 00DD   2   3B 1E 0004		      cmp ArrayBx,Hd.Avail
 00E1  3,1  72 DF		      jb RepassB
				     ; Pcode will be remade.
 00E3   1   65: C7 46 04 0010	      mov Hg.Avail,$StrideH
 00E9   3   EB B7		      jmp Compiler

 00EB				     OnePass:move Hg.Original,Hg.Avail; Limit of Pcode from original file.
 00EB   1   65: 8B 46 04	  1      mov ax,Hg.Avail
 00EF   1   65: 89 46 0A	  1      mov Hg.Original,ax
				     ; Maximum line number determines the width of the number on trace.
 00F3   6p  C5 5E 3C		      lds bx,Z.SysFile
 00F6   3   66| 0F B7 86 010F	      movzx eax,Z.Lines
 00FC   1   66| 48		      dec eax
 00FE   1   66| 89 47 EA	      mov F.Lines,eax
				      z cx
 0102   1   8B CD		  1           mov cx,bp
 0104   1   BE 0004		      mov si,Yshape.N10-4
 0107   1   83 C6 04		     @@:add si,4
 010A   1   41			      inc cx
 010B   2   2E: 3B 04		      cmp ax,Wptr cs:[si]
 010E  3,1  73 F7		      jae @B
 0110   1   88 4F F5		      mov F.TraceWidth,cl
				     ; Best to close source since number of externals may exceed supply of handles.
				     if 0
				     endif
				     ;2011 New build flag
				     if ForBcode eq 1
				     endif

 0113				     StartExecution:
 0113   1   BE 0010		      mov CursorSi,$StrideH; Pcode position to start execution.
 0116   1   89 66 2E		      mov Z.XCycleResetSp,sp
 0119				     StartExecutionY:
 0119   3p  8E 46 44		      mov ProgEs,Z.ProgScope
 011C   3p  8E 66 46		      mov fs,Z.VarScope
 011F   3p  8E 6E 4A		      mov gs,Z.Code
 0122   3   E9 0000 E		      jmp XCycle

				     ;------------------------------------------------------------------------------
				     ; Processing for tracing proceeds clause by clause.
				     ;------------------------------------------------------------------------------


 0125				     Monitor:; The same action as for XCycle operations. See label Operator.
 0125   3   0F B6 D8		      movzx bx,al
 0128   1   89 7E 06		      mov Z.Stack,StackDi; Record of how much stack in use needed for Compaction.
 012B   5p  2E: FF 97 FFFF E	      call cs:(PcodesBase$-1)[bx]
				     ; The CursorSi now will tell us whether the operation resulted in a jump.
				     ; A jump target is in the original Pcode so will be below the transient Pcode.
 0130   2   3B B6 00C6		      cmp CursorSi,Z.DualCode
 0134  3,1  0F 83 0000 E	      jnb XCycle
				     ; We jumped out of that clause. That ends the clause and tells us where to
				     ; start the next.
 0138				     JumpedOut:
 0138   1   89 76 36		      mov Z.Cursor,CursorSi
				     ; Clause can end by reason of jump or by $TraceEndClause event at end.
 013B				     ClauseRunEnd:
				      Off Z.Cancel,ParseTrace
 013B   3   80 66 04 F7		  1          and Bptr(Z.Cancel), low not ??0000
 013F   1   8B 76 36		      mov CursorSi,Z.Cursor; Next clause, on the original.
				     ; If it is the $pExit synthesised on the end of the original program then there
				     ; is no corresponding source.
 0142   1+  8D 44 01		      lea ax,1[CursorSi]
 0145   2   65: 3B 46 0A	      cmp ax,Hg.Original
 0149  3,1  74 CE		      je StartExecutionY; Run the original $pExit
 014B				     DualSwitch:; CursorSi is ready for the next clause.
 014B   1   8B 66 2E		      mov sp,Z.XCycleResetSp
				     ; There may be no reason to stay in (or enter) clause-by-clause mode.
 014E   3   E8 0000 E		      call HeritageDi
 0151   2   8A 43 99		      mov al,L.TraceLetter
 0154   1   5F			      pop StackDi
				     ; Make sure of ShowClauseId each time tracing starts up.
				      Qry Z.Gen,Dual
 0155   2   F6 46 0F 80		  1          test Bptr(Z.Gen+1), high ??0001
 0159  3,1  75 04		      jnz @F
				      z Z.TraceLine
 015B   1   89 AE 00D5		  1           mov Z.TraceLine,bp
 015F				      @@:
 015F   1   3C 4E		      cmp al,'N'
 0161  3,1  0F 84 0000 E	      je XCycle
 0165   1   3C 4F		      cmp al,'O'
 0167  3,1  0F 84 0000 E	      je XCycle
				     ; Do the next clause by dual method.
 016B   1   89 B6 010D		      mov Z.Synch,CursorSi
 016F   1   C7 46 0E 8000	      mov Z.Gen,mask Dual
 0174   1   C7 46 36 0010	      mov Z.Cursor,$StrideH
 0179   3   E8 0000 E		      call Compiling
				     ; Bounds of the source will have been a compiling by-product.
				     ; Convert the current letter to a set of flags.
 017C   3   E8 0000 E		      call HeritageDi
 017F   4   0F B6 5B 99		      movzx bx,L.TraceLetter
 0183   1   2E: 8A 97 0216 R	      mov dl,cs:$TraceLetter[bx-'A']
 0188   1   5F			      pop StackDi
 0189   1   F6 C2 02		      test dl,$TraceA
 018C  3,1  0F 84 00B2		      jz NotTraceA
				     ; ELSE has special treatment.
				      Qry Z.Program,ShowELSE
 0190   2   F6 46 02 40		  1          test Bptr(Z.Program), low ??0002
 0194  3,1  75 27		      jnz MonNotThen
				     ; We want the lines of source between Z.TraceSource and Z.TraceEnds.
				     ; THEN is special. We had to push on over it in the source but it isn't
				     ; supposed to show if the THEN clause isn't executed.
 0196   1   8B B6 00C6		      mov CursorSi,Z.DualCode
 019A   1   46			      inc CursorSi; Over $pTraceEvent
 019B   2   65: 80 3C 5F	      cmp Bptr gs:[CursorSi],$pThen
 019F  3,1  74 06		      je @F
 01A1   2   65: 80 3C 61	      cmp Bptr gs:[CursorSi],$pWhen
 01A5  3,1  75 16		      jne MonNotThen
 01A7   1   46			     @@:inc CursorSi; Over $pThen
				     ; Have to run THEN before (perhaps) showing it.
 01A8   3   E8 0000 E		      call Then$$
				      On Z.Program,ShowELSE
 01AB   3   80 4E 02 40		  1          or  Bptr(Z.Program), low ??0003
 01AF   2   3B B6 00C6		      cmp CursorSi,Z.DualCode
 01B3  3,1  72 83		      jb JumpedOut; Nothing shown
 01B5   1   89 B6 00C6		      mov Z.DualCode,CursorSi
				      Off Z.Program,ShowELSE
 01B9   3   80 66 02 BF		  1          and Bptr(Z.Program), low not ??0004
 01BD				     MonNotThen:
				     ; ELSE is special. The unconditional jump it puts at the end of a THEN leg,
				     ; if executed, does not have any corresponding source shown.
 01BD   2   65: 80 3C 63	      cmp Bptr gs:[CursorSi],$pJump
 01C1  3,1  0F 84 008B		      je ExecuteDual; Showing no source.
				     ; Our window on the source is Z.Relative onwards for $SourceBufferSize-2.
				     ; No need to refetch if what we want is in the window.
 01C5   1   66| 8B 8E 00BA	      mov ecx,Z.TraceSource
 01CA   2   80 BE 01A4 04	      cmp Z.SerialNow,$SerialSource
 01CF  3,1  75 18		      jne @F
 01D1   1   66| 8B 96 00C9	      mov edx,Z.Relative
 01D6   1   66| 3B CA		      cmp ecx,edx
 01D9  3,1  72 0E		      jb @F
 01DB   1   66| 81 C2 000011C6	      add edx,$SourceBufferSize-2
 01E2   2   66| 3B 96 00BE	      cmp edx,Z.TraceEnds
 01E7  3,1  77 0A		      ja NoNeedSource
 01E9   1   66| 89 8E 00C9	     @@:mov Z.Relative,ecx
 01EE   1   B0 04		      mov al,$SerialSource
 01F0   3   E8 0000 E		      call Serialize
 01F3   1   66| 8B F1		     NoNeedSource:mov esi,ecx
 01F6   2   66| 2B B6 00C9	      sub esi,Z.Relative
 01FB   1   81 C6 01A5		      add si,Zshape.Serial
				     ; Bytes to show start at SS:SI
 01FF   1   66| C7 46 24	      mov Dptr(Z.Tag+1),StringOrder('*','-','*',' '); For first ShowClauseId
	      202A2D2A
				     ; Dont show leading $Lf
				      mv ds,ss
 0207   3   16			  1   push ss
 0208   3p  1F			  1   pop ds
 0209   2   80 3C 0A		      cmp Bptr[si],$Lf
 020C  3,1  75 07		      jne @F
 020E   1   46			      inc si
 020F   1   66| 41		      inc ecx
				      z Z.TraceSourceColumn
 0211   1   89 AE 00C2		  1           mov Z.TraceSourceColumn,bp
 0215				      @@:
 0215   1   8B D6		      mov dx,si
 0217   2   66| 3B 8E 00BE	      cmp ecx,Z.TraceEnds
 021C  3,1  73 24		      jnb NotTraceA
 021E   5   AC			     TSloop:lodsb
 021F   1   3C 0A		      cmp al,$Lf
 0221  3,1  75 03		      jne TSnext
 0223   3   E8 018C		      call ShowLine; dx up to si
 0226   1   66| 41		     TSnext:inc ecx
 0228   2   66| 3B 8E 00BE	      cmp ecx,Z.TraceEnds
 022D  3,1  75 EF		      jne TSloop
				     ; If there is anything to show at this point it will not end with a line-feed.
				     ; One has to be added.
 022F   1   3B F2		      cmp si,dx
 0231  3,1  74 0F		      je NotTraceA
 0233   3   E8 017C		      call ShowLine
				      mv ds,cs
 0236   3   0E			  1   push cs
 0237   3p  1F			  1   pop ds
 0238   1   BA 004D		      mov dx,Yshape.CrLf
 023B   1   B9 0002		      mov cx,2
 023E   1   B4 40		      mov ah,$DosWrite
 0240  30   CD 21		      int 21h
 0242				     NotTraceA:
 0242   8   0F BA 76 02 06	       btr Z.Program,ShowELSE
 0247  3,1  73 07		       jnc ExecuteDual
				     ; Go again with same Z.Synch but flag off.
 0249   1   8B B6 010D		      mov CursorSi,Z.Synch
 024D   3   E9 FEFB		      jmp DualSwitch

				     ; Code with trace events starts at Z.DualCode, ends with $TraceEndClause.
 0250   1   8B B6 00C6		     ExecuteDual:mov CursorSi,Z.DualCode
 0254   3   E9 FEC2		     jmp StartExecutionY

				     ; Convert letter to flags, allowing for 'C' includes 'E' etc.
 = 0000				     $TraceO equ 0
 = 0001				     $TraceB equ 1; TraceBack
 = 0002				     $TraceA equ 2
 = 0004				     $TraceC equ 4
 = 0008				     $TraceE equ 8
 = 0010				     $TraceF equ 16
 = 0020				     $TraceI equ 32
 = 0040				     $TraceL equ 64
 = 0080				     $TraceR equ 128
				     if Solid
				     ; Whatever the letter, traceback is enabled.
 0257 03			     $TraceLetter db $TraceA+1
 0258  00			     db ?
 0259  0D			     db $TraceC+$TraceE+1
 025A  00			     db ?
 025B  09			      db $TraceE+1
 025C  11			      db $TraceF+1
 025D  00			      db ?
 025E  00			      db ?
 025F  23			      db $TraceA+$TraceI+1
 0260  00			      db ?
 0261  00			      db ?
 0262  41			      db $TraceL+1
 0263  00			      db ?
 0264  11			      db $TraceF+1
 0265  01			      db $TraceO+1
 0266  00			      db ?
 0267  00			      db ?
 0268  83			      db $TraceA+$TraceR+1
				     endif

				     ; Convert trace event number to what letter (mask) enables it.
				     if Solid
 0269 = 0269			     $TrEv equ $
				      org $TrEv+3*$TraceClause/2
 026F  A2			      db $TraceA+$TraceI+$TraceR
 0270  2A 2D			      db "*-" ; Source, as with All
				      org $TrEv+3*$TraceExpr/2
 027B  80			      db $TraceR
 027C  3E 3E			      db ">>" ; Results
				      org $TrEv+3*$TraceBY/2
 026C  80			      db $TraceR
 026D  3E 2B			      db ">+" ; BY
				      org $TrEv+3*$TraceDot/2
 0275  80			      db $TraceR
 0276  3E 2E			      db ">." ; Parse .
				      org $TrEv+3*$TraceAssign/2
 0269  80			      db $TraceR
 026A  3E 3D			      db ">=" ; Assign, parse assign.
				      org $TrEv+3*$TraceCompound/2
 0272  20			      db $TraceI
 0273  3E 43			      db ">C" ; Parts of a compound reference.
				      org $TrEv+3*$TraceLit/2
 028A  20			      db $TraceI
 028B  3E 4C			      db ">L" ; Literal
				      org $TrEv+3*$TracePrefix/2
 0287  20			      db $TraceI
 0288  3E 50			      db ">P" ; Prefix operator
				      org $TrEv+3*$TraceOperator/2
 0284  20			      db $TraceI
 0285  3E 4F			      db ">O" ; Other operator
				      org $TrEv+3*$TraceFunction/2
 0281  20			      db $TraceI
 0282  3E 46			      db ">F" ; Function reference.
				      org $TrEv+3*$TraceVar/2
 028D  20			      db $TraceI
 028E  3E 56			      db ">V" ; Variable
				      org $TrEv+3*$TraceError/2
 0278  08			      db $TraceE
 0279  2B 2B			      db "++" ; Return code
				      org $TrEv+3*$TraceFailure/2
 027E  10			      db $TraceF
 027F  2B 2B			      db "++" ; Return code
				      org $TrEv+3*$TraceBack/2
 0290  01			      db $TraceB; Highest
 0291  2A 54			      db "*T" ; Traceback
				     ; Also "*-"  and "*," for source.
				     endif

 0293   5   65: AC		     TraceEvent$$:lodsb gs:[CursorSi]
				     ; Odds are Pcodes, evens are particular causes of tracing.
 0295   1   A8 01		      test al,1
 0297  3,1  0F 85 FE8A		      jnz Monitor
				     ; $TraceEndClause is special because it ends the transient code.
 029B   1   3C 1E		      cmp al,$TraceEndClause
 029D  3,1  0F 84 FE9A		      je ClauseRunEnd
				     ; Just set a flag when PARSE.
 02A1   1   3C 1C		      cmp al,$TraceParse
 02A3  3,1  75 05		      jne @F
				      On Z.Cancel,ParseTrace
 02A5   3   80 4E 04 08		  1          or  Bptr(Z.Cancel), low ??0005
 02A9   5   C3			      ret
 02AA				      @@:

				     ; Normal entry is from XCycle but there is this one from mid-parse. (With more
				     ; registers in use. DsSiCx )
 02AA   1   56			     TraceEventX:push CursorSi; (SI is not CursorSi when from mid-parse)
				     ; Convert the current letter to a set of flags.
 02AB   3   E8 0000 E		      call HeritageDi
 02AE   4   0F B6 5B 99		      movzx bx,L.TraceLetter
 02B2   1   2E: 8A 97 0216 R	      mov dl,cs:$TraceLetter[bx-'A']
 02B7   1   5F			      pop StackDi
				     ; Note whether letter (mask) enables this event.
				     ; Event of loading Var becomes event of loading Lit if variable is dropped.
 02B8   8   0F BA 76 04 00	      btr Z.Cancel,WasDropped
 02BD  3,1  73 02		      jnc @F
 02BF   1   B0 16		      mov al,$TraceLit
 02C1				      @@:
 02C1   3   98			      cbw
 02C2   1   8B D8		      mov bx,ax
 02C4   3   D1 EB		      shr bx,1
 02C6   1   03 D8		      add bx,ax
 02C8   2   2E: 22 97 0269 R	      and dl,Bptr cs:$TrEv[bx]
 02CD  3,1  0F 84 009B		      jz TrEvRet
				     ; Note the tag for the line to be shown.
 02D1   1   2E: 8B 9F 026A R	      mov bx,cs:$TrEv[bx+1]
 02D6   1   89 5E 24		      mov Wptr Z.Tag+1,bx
 02D9   1   88 5E 26		      mov Z.Tag+3,bl
				     ; DL now says what is to be shown.
 02DC   1   3C 00		      cmp al,$TraceAssign
 02DE  3,1  75 11		      jne NotAssign$
				     ; The assign in parse does not have a value of the stack. It is DS:SI:CX
				      Qry Z.Cancel,ParseTrace
 02E0   2   F6 46 04 08		  1          test Bptr(Z.Cancel), low ??0006
 02E4  3,1  74 14		      jz ShowTop
 02E6				     @@:; We need some reasonable place on the stack, to make it similar to others.
 02E6   1   8B 7E 06		      mov StackDi,Z.Stack
 02E9   1   83 C7 10		      add StackDi,2*$StrideV
 02EC   3   E8 0000 E		      call VasDsSiCx
 02EF   3   EB 09		      jmp ShowTop
 02F1   1   3C 08		     NotAssign$:cmp al,$TraceDot
 02F3  3,1  74 F1		      je @B
 02F5   1   F6 C2 A4		      test dl,$TraceC or $TraceI or $TraceR
 02F8  3,1  74 49		      jz NotTop
 02FA				     ShowTop:
				     ; The value to be shown is on the stack.
 02FA   1   8B 5E 14		      mov bx,Z.Stdout
 02FD   3   E8 0071		      call ShowClauseId
				      mv ds,cs
 0300   3   0E			  1   push cs
 0301   3p  1F			  1   pop ds
 0302   1   BA 004C		      mov dx,Yshape.DqCrLf
 0305   1   B9 0001		      mov cx,1
 0308   1   B4 40		      mov ah,$DosWrite
 030A  30   CD 21		      int 21h; Takes ds:dx:cx to file bx
				     ; We want to leave V. the way we found it.
				     ; But cannot but V. back to numeric until showing done.
 030C   3   F6 43 07 C0		      test V.Dtype,$Test
 0310   4p  9C			      pushf
 0311   3   E8 0000 E		      call ToDsSiCx
 0314   1   51			      push cx
 0315   1   83 F9 32		      cmp cx,$Limit_Insert
 0318  3,1  76 03		      jna @F
 031A   1   B9 0032		      mov cx,$Limit_Insert
 031D				      @@:
 031D   1   8B D6		      mov dx,si
				     ; Better not let things like e-o-f show.
				     ; How to do that without altering version in memory?
				     ; Maybe show char by char if troubled? NYI
 031F   1   B4 40		      mov ah,$DosWrite
 0321  30   CD 21		      int 21h; Takes ds:dx:cx to file bx
				      mv ds,cs
 0323   3   0E			  1   push cs
 0324   3p  1F			  1   pop ds
 0325   1   BA 004C		      mov dx,Yshape.DqCrLf
				     ; "..." preceeds CrLf, if truncation.
 0328   1   59			      pop cx
 0329   1   83 F9 32		      cmp cx,$Limit_Insert
 032C   1   B9 0002		      mov cx,2
 032F  3,1  76 06		      jna @F
 0331   1   83 EA 03		      sub dx,3
 0334   1   B9 0005		      mov cx,5
 0337				      @@:
 0337   1   B4 40		      mov ah,$DosWrite
 0339  30   CD 21		      int 21h
 033B   9p  9D			      popf
 033C  3,1  75 03		      jnz @F
 033E   3   E8 0000 E		      call NumDxBx
 0341				      @@:
				      RetSi
 0341   1   5E			  1   pop CursorSi
 0342   5   C3			  1   ret

 0343				     NotTop:

 0343   1   F6 C2 18		      test dl,$TraceE or $TraceF
 0346  3,1  74 22		      jz NotRC
				     ; Show RC=
				      mv ds,cs
 0348   3   0E			  1   push cs
 0349   3p  1F			  1   pop ds
 034A   1   BA 036E R		      mov dx,offset RCis
 034D   1   B9 0003		      mov cx,3
 0350   1   B4 40		      mov ah,$DosWrite
 0352  30   CD 21		      int 21h
				     ; Move to stack
				      Up
 0354   1   83 C7 08		  1   add StackDi,$StrideV
				      Move V,Vf[$?RCx]
 0357   1   66| 64: 8B 4E 28	  1     mov ecx,Vf[$?RCx].OverExpo
 035C   1   66| 89 0B		  1     mov V.OverExpo,ecx
 035F   1   66| 64: 8B 46 2C	  1     mov eax,Vf[$?RCx].OverMant
 0364   2   66| 89 43 04	  1     mov V.OverMant,eax
 0368   3   EB 90		      jmp ShowTop

 036A   5p  FF D5		     NotRC:Error49Bp; L & T

 036C				     TrEvRet:RetSi
 036C   1   5E			  1   pop CursorSi
 036D   5   C3			  1   ret

 036E 52 43 3D			     RCis db "RC="

 0371				     ShowClauseId:; BX is target file.
 0371   1   56			      push si
 0372   1   52			      push dx
 0373   1   51			      push cx
				     ; TraceWidth to dl - how many columns for the number.
 0374   1   53			      push bx
 0375   6p  C5 5E 3C		      lds bx,Z.SysFile
 0378   1   8A 57 F5		      mov dl,F.TraceWidth
 037B   1   5B			      pop bx
 037C   1   8B 46 08		      mov ax,Z.ClauseLine; Current - previously shown is in Z.TraceLine
				     ; Produce nothing for equal line number by using zero with full blank suppress.
 037F   1   8B C8		      mov cx,ax
 0381   5   87 8E 00D5		      xchg cx,Z.TraceLine
 0385   1   3B C1		      cmp ax,cx
 0387  3,1  75 02		      jne @F
				      z ax
 0389   1   8B C5		  1           mov ax,bp
 038B   3   E8 007D		      @@:call Ax2DsSiCx
				      TestReg ax
 038E   1   85 C0		  1         test ax,ax
 0390  3,1  75 04		      jnz @F
 0392   1   C6 46 22 20		      mov Z.AxAsNum+(sizeof Zshape.AxAsNum)-1,' '
 0396				      @@:
				     ; Bring small numbers up to length dl by adding leading blanks.
 0396   1   38 D1		     @@:cmp cl,dl
 0398  3,1  73 07		     jae @F
 039A   1   41			     inc cx
 039B   1   4E			     dec si
 039C   1   C6 04 20		     mov Bptr[si],' '
 039F   3   EB F5		     jmp @B
 03A1				     @@:
				     ; Write from SI onward.
 03A1   1   8B D6		      mov dx,si
 03A3   1   83 C1 05		      add cx,5; Blank-tag-blank.
 03A6   1   B4 40		      mov ah,$DosWrite
 03A8  30   CD 21		      int 21h; Takes ds:dx:cx to file bx
 03AA   1   C6 46 25 2C		      mov Z.Tag+2,','; For case of Tag was *-*
 03AE   1   59			      pop cx
 03AF   1   5A			      pop dx
 03B0   1   5E			      pop si
 03B1   5   C3			      ret

 03B2				     ShowLine:; Show SS:DX to SS:SI. Advances DX
 03B2   1   8B 5E 14		      mov bx,Z.Stdout
 03B5   3   E8 FFB9		      call ShowClauseId
 03B8  11   60			      pusha
				     ; Alignment may be needed.
 03B9   3   0F B6 8E 00C2	      movzx cx,Bptr Z.TraceSourceColumn; Bug havoc potential reduction.
 03BE  8,5  E3 06		     @@:jcxz @F
 03C0   1   49			      dec cx
 03C1   3   E8 000E		      call ShowBlank
 03C4   3   EB F8		      jmp @B
 03C6   1   8B CE		     @@:mov cx,si
 03C8   1   2B CA		      sub cx,dx
 03CA   1   B4 40		      mov ah,$DosWrite
 03CC  30   CD 21		      int 21h
 03CE   1   8B D6		      mov dx,si; Ready for next.
 03D0   9   61			      popa
 03D1   5   C3			      ret

 03D2  11   60			     ShowBlank:pusha
 03D3   1   BA 0023		      mov dx,Zshape.Tag; Which is a blank
 03D6   1   B9 0001		      mov cx,1
 03D9   1   B4 40		      mov ah,$DosWrite
 03DB  30   CD 21		      int 21h
 03DD   9   61			      popa
 03DE   5   C3			      ret

 03DF				     ClauseSourceEnd:; Records end of a clause in source.
				     ; This is the end of the clause from a source view point - the semicolon,
				     ; linefeed, THEN, ELSE.
 03DF   1   56			      push ScanSi
 03E0   1   50			      push ax
 03E1   1   81 EE 01A5		      sub ScanSi,Zshape.Serial
 03E5   3   66| 0F B7 F6	      movzx esi,si
 03E9   2   66| 03 B6 00C9	      add esi,Z.Relative
 03EE   1   66| 8B C6		      mov eax,esi
				     ; End of previous was beginning of this.
 03F1   5   66| 87 B6 00BE	      xchg Z.TraceEnds,esi
 03F6   1   66| 89 B6 00BA	      mov Z.TraceSource,esi
				     ; Also need the column.
 03FB   2   66| 2B 86 00B6	      sub eax,Z.TraceAlign
 0400   5   87 86 00C4		      xchg ax,Z.TraceEndsColumn
 0404   1   89 86 00C2		      mov Z.TraceSourceColumn,ax
 0408   1   58			      pop ax
 0409   1   5E			      pop ScanSi
 040A   5   C3			      ret

				     ;------------------------------------------------------------------------------
				     ; Ax as a number in AxAsNum
				     ; ds and si and cx set up for movsb
				     ;------------------------------------------------------------------------------
 040B   1   50			     Ax2DsSiCx:push ax
 040C   1   53			     push bx
 040D   1   52			     push dx
				     mv ds,ss
 040E   3   16			  1   push ss
 040F   3p  1F			  1   pop ds
				     ; Radix always reverts to 10
 0410   1   BB 000A		      mov bx,10
 0413   5   86 5E 1C		      xchg bl,Z.Radix
				      z cx
 0416   1   8B CD		  1           mov cx,bp
				     ; Convert and store backwards
 0418   1   BE 0023		      mov si,Zshape.AxAsNum + (sizeof Zshape.AxAsNum)
 041B				     Ax2:z dx; Clear top
 041B   1   8B D5		  1           mov dx,bp
 041D  24   F7 F3		      div bx; Divide to get last digit as remainder
 041F   1   80 C2 30		      add dl,'0'; Convert to ASCII
				     ; ABCDEF are not immediately after 0123456789
 0422   1   80 FA 39		      cmp dl,'9'
 0425  3,1  76 03		      jbe @F
 0427   1   80 C2 07		      add dl,7
 042A				      @@:
 042A   1   4E			      dec si
 042B   1   88 12		      mov [si+bp],dl
 042D   1   41			      inc cx
				      TestReg ax
 042E   1   85 C0		  1         test ax,ax
 0430  3,1  75 E9		      jnz Ax2
				     ; Make it even unless going to decimal.
 0432   1   F6 C1 01		      test cl,1
 0435  3,1  74 0A		      jz @F
 0437   1   80 FB 0A		      cmp bl,10
 043A  3,1  74 05		      je @F
 043C   1   4E			      dec si
 043D   1   C6 02 30		      mov Bptr [si+bp],'0'
 0440   1   41			      inc cx
 0441				      @@:
 0441   1   5A			      pop dx
 0442   1   5B			      pop bx
 0443   1   58			      pop ax
 0444   5   C3			      ret

				     ;------------------------------------------------------------------------------
				     ; Only kept for debugging.
				     ;------------------------------------------------------------------------------
 0445  11   60			     Consist:pusha
 0446   3   1E			     push ds
 0447   3   0F A0		     push fs
				     ; Does content of Symbols make sense?
				     ; More than that, do Z.Vars and Z.Consts agree with it?
 0449   3p  8E 5E 48		      mov ds,Z.Symbols
				     ; Move si thru symbols.
				      z cx
 044C   1   8B CD		  1           mov cx,bp
				      z dx
 044E   1   8B D5		  1           mov dx,bp
 0450   1   BE 0010		      mov si,$StrideH
 0453   1   41			      inc cx; Allows for Omitted.
 0454				     DumpL:
 0454   3   0F B6 04		      movzx ax,Bptr[si]
 0457   1   46			      inc si
 0458   1   8B DE		      mov bx,si
				     ; DS:SI::AX and DS:BX::AX to the symbol content.

				     if 0
				     endif
				     ; Leave BX at the beginning of the item.
 045A   1   03 F0		      add si,ax; Type follows symbol, except for vars.
 045C   2   3B 36 0004		      cmp si,Hd.Avail
 0460  3,1  0F 84 0084		      je ConsistRet
				     ; This bit is about the item trailer.
				     ; Send on DI=0 unless there was a label value.
				      z di
 0464   1   8B FD		  1           mov di,bp
 0466   2   80 3C FF		      cmp Bptr[si],$tChar
 0469  3,1  75 03		      jne @F
 046B   1   46			      inc si
 046C   3   EB 42		      jmp DLcon
 046E				      @@:
 046E   2   80 3C FD		      cmp Bptr[si],$tBinary
 0471  3,1  75 03		      jne @F
 0473   1   46			      inc si
 0474   3   EB 3A		      jmp DLcon
 0476				      @@:
 0476   2   80 3C FE		      cmp Bptr[si],$tLabel
 0479  3,1  75 08		      jne @F
				     ; The value of the label is in here.
 047B   1   46			      inc si
 047C   1   8B 3C		      mov di,Wptr[si]
 047E   1   83 C6 02		      add si,2
 0481   3   EB 2D		      jmp DLcon
 0483				     @@:
				     ; DX is the count of this variable. Check that one points the same as BX
 0483   1   8B C2		      mov ax,dx
 0485   1   42			      inc dx
 0486   2   C1 E0 03		      shl ax,$ShiftV
 0489   1   8B F8		      mov di,ax
 048B   3p  8E 66 42		      mov fs,Z.Vars
 048E   2   64: 8B 43 14	      mov ax,fs:V.Here[$StrideH]
 0492   1   40			      inc ax
 0493   1   3B C3		      cmp ax,bx
 0495  3,1  74 01		      je @F
 0497  26   CC			      int 3
 0498				      @@:
				     ; Variables that end with a dot take two slots.
 0498   2   80 7C FF 2E		      cmp Bptr[si-1],'.'
 049C  3,1  75 01		      jne @F
 049E   1   42			      inc dx
 049F				      @@:
				     ; Ought to be a variable symbol.
 049F   1   8A 07		      mov al,Bptr[bx]
 04A1   1   BB 0000 E		      mov bx,Attributes
				      XlatBDLS
 04A4   4   2E: D7		  1   xlat Bptr cs:[bx]
 04A6   1   A8 C0		  1   test al,0C0h
 04A8  3,1  7B 01		      jpo @F
 04AA  26   CC			      int 3
 04AB				      @@:
 04AB  3,1  78 01		      js @F
 04AD  26   CC			      int 3
 04AE				      @@:
 04AE   3   EB 30		      jmp ConsistL

 04B0				     DLcon:; CX is the count of this const. Check any LabelValue & check v BX
 04B0   1   8B C1		      mov ax,cx
 04B2   1   41			      inc cx
 04B3   2   C1 E0 03		      shl ax,$ShiftV
 04B6   3   97			      xchg di,ax
 04B7   3p  8E 66 44		      mov fs,Z.ProgScope
 04BA   1   83 C7 14		      add di,$SizeConstsHeader
				      TestReg ax
 04BD   1   85 C0		  1         test ax,ax
 04BF  3,1  74 12		      jz @F
 04C1   2   64: 3B 03		      cmp ax,fs:V.LabelValue
 04C4  3,1  74 0D		      je @F
 04C6   2   64: 83 3B 01	      cmp fs:V.LabelValue,1
 04CA  3,1  74 07		      je @F
				     ; The Reserveds don't stay labels so cant check em.
 04CC   1   81 FF 0094		      cmp di,$?STARTTIME
 04D0  3,1  76 01		      jna @F
 04D2  26   CC			      int 3
 04D3				     @@:
 04D3   3p  8E 66 40		      mov fs,Z.Consts
 04D6   2   64: 8B 43 04	      mov ax,fs:V.Here
 04DA   1   40			      inc ax
 04DB   1   3B C3		      cmp ax,bx
 04DD  3,1  74 01		      je @F
 04DF  26   CC			      int 3
 04E0				      @@:
				     ; SI now on next symbol.
 04E0   2   3B 36 0004		     ConsistL:cmp si,Hd.Avail
 04E4  3,1  0F 82 FF6C		     jb DumpL
 04E8   3p  0F A1		     ConsistRet:pop fs
 04EA   3p  1F			     pop ds
 04EB   9   61			     popa
 04EC   5   C3			     ret

				     ; Create file to take dump.
 04ED 44 2E 54 00		     Dump db "D.T",0

 04F1  11   60			     Create4Dump:pusha
 04F2   1   8B 5E 30		      mov bx,Z.Dumper
				      TestReg bx
 04F5   1   85 DB		  1         test bx,bx
 04F7  3,1  75 14		      jne C4Has
				      mv ds,cs
 04F9   3   0E			  1   push cs
 04FA   3p  1F			  1   pop ds
 04FB   1   BA 04ED R		      mov dx,offset Dump
				      z cx
 04FE   1   8B CD		  1           mov cx,bp
 0500   1   B4 3C		      mov ah,$DosCreate
 0502  30   CD 21		      int 21h
 0504  3,1  73 02		      jnc @F
 0506   5p  FF D5		      Error49Bp
 0508   1   89 46 30		      @@:mov Z.Dumper,ax
 050B   1   8B D8		      mov bx,ax
 050D				     C4Has:z cx
 050D   1   8B CD		  1           mov cx,bp
				      z dx
 050F   1   8B D5		  1           mov dx,bp
 0511   1   B8 4200		      mov ax,MkMajMin($DosSeek,0)
 0514  30   CD 21		      int 21h; Ask to move cx:dx from begin of file.
 0516   9   61			      popa
 0517   5   C3			      ret

 0518  11   60			     Dumper:pusha
				     if 1
 0519   3   E8 FF29		      call Consist
				     endif
				     ; Write lengths
 051C   1   8B 5E 30		      mov bx,Z.Dumper
 051F   1   B9 0002		      mov cx,2
 0522   3p  8E 5E 4A		      mov ds,Z.Code
 0525   1   BA 0004		      mov dx,Hshape.Avail
 0528   1   B4 40		      mov ah,$DosWrite
 052A  30   CD 21		      int 21h
 052C   3p  8E 5E 48		      mov ds,Z.Symbols
 052F   1   BA 0004		      mov dx,Hshape.Avail
 0532   1   B4 40		      mov ah,$DosWrite
 0534  30   CD 21		      int 21h
				     ; Write from segments
				      z dx
 0536   1   8B D5		  1           mov dx,bp
 0538   3p  8E 5E 4A		      mov ds,Z.Code
 053B   1   8B 0E 0004		      mov cx,Hd.Avail
 053F   1   B4 40		      mov ah,$DosWrite
 0541  30   CD 21		      int 21h
 0543   3p  8E 5E 48		      mov ds,Z.Symbols
 0546   1   8B 0E 0004		      mov cx,Hd.Avail
 054A   1   B4 40		      mov ah,$DosWrite
 054C  30   CD 21		      int 21h
 054E   9   61			      popa
 054F   5   C3			      ret



 0550				     StartupStack:
				     .stack
				      end Startup
Microsoft (R) Macro Assembler Version 6.11		    01/29/12 12:07:10
main.asm						     Symbols 2 - 1




Macros:

                N a m e                 Type

AllocAppend  . . . . . . . . . . . . .	Proc
BackRet  . . . . . . . . . . . . . . .	Proc
Back . . . . . . . . . . . . . . . . .	Proc
CodeModeR  . . . . . . . . . . . . . .	Proc
DownCare . . . . . . . . . . . . . . .	Proc
Down . . . . . . . . . . . . . . . . .	Proc
EvAh . . . . . . . . . . . . . . . . .	Proc
EvRet  . . . . . . . . . . . . . . . .	Proc
JcxzQ  . . . . . . . . . . . . . . . .	Proc
LoopQ  . . . . . . . . . . . . . . . .	Proc
MkMajMin . . . . . . . . . . . . . . .	Func
Move . . . . . . . . . . . . . . . . .	Proc
Mv . . . . . . . . . . . . . . . . . .	Proc
Off  . . . . . . . . . . . . . . . . .	Proc
On . . . . . . . . . . . . . . . . . .	Proc
OpAl . . . . . . . . . . . . . . . . .	Proc
OpRet  . . . . . . . . . . . . . . . .	Proc
PopJunk  . . . . . . . . . . . . . . .	Proc
Pos  . . . . . . . . . . . . . . . . .	Func
Qry  . . . . . . . . . . . . . . . . .	Proc
Repmovsb . . . . . . . . . . . . . . .	Proc
RetSi  . . . . . . . . . . . . . . . .	Proc
Splat  . . . . . . . . . . . . . . . .	Proc
StringOrder  . . . . . . . . . . . . .	Func
TestReg  . . . . . . . . . . . . . . .	Proc
UnCodeMode . . . . . . . . . . . . . .	Proc
UpCare . . . . . . . . . . . . . . . .	Proc
Up . . . . . . . . . . . . . . . . . .	Proc
XlatBDLS . . . . . . . . . . . . . . .	Proc
dec2 . . . . . . . . . . . . . . . . .	Proc
inc2 . . . . . . . . . . . . . . . . .	Proc
la . . . . . . . . . . . . . . . . . .	Proc
move . . . . . . . . . . . . . . . . .	Proc
mv . . . . . . . . . . . . . . . . . .	Proc
top  . . . . . . . . . . . . . . . . .	Proc
xax  . . . . . . . . . . . . . . . . .	Proc
z  . . . . . . . . . . . . . . . . . .	Proc


Structures and Unions:

                N a m e                  Size
                                         Offset      Type

Ashape . . . . . . . . . . . . . . . .	 0006
  Fr . . . . . . . . . . . . . . . . .	 0000	     DWord
  Amount . . . . . . . . . . . . . . .	 0004	     Word
Dshape . . . . . . . . . . . . . . . .	 0028
  TailsAt  . . . . . . . . . . . . . .	 0000	     Word
  Subject  . . . . . . . . . . . . . .	 0000	     QWord
  CVinit . . . . . . . . . . . . . . .	 0000	     QWord
  Reps . . . . . . . . . . . . . . . .	 0000	     QWord
  To . . . . . . . . . . . . . . . . .	 0008	     QWord
  By . . . . . . . . . . . . . . . . .	 0010	     QWord
  ForCount . . . . . . . . . . . . . .	 0018	     QWord
  PcodePos . . . . . . . . . . . . . .	 0020	     Word
  Iteration  . . . . . . . . . . . . .	 0020	     Word
  Leaving  . . . . . . . . . . . . . .	 0022	     Word
  UpDO . . . . . . . . . . . . . . . .	 0024	     Word
  CV . . . . . . . . . . . . . . . . .	 0024	     Word
  Rec  . . . . . . . . . . . . . . . .	 0027	     Byte
EnvBlock . . . . . . . . . . . . . . .	 0008
  EnvNumber  . . . . . . . . . . . . .	 0000	     Word
  EnvResourceI . . . . . . . . . . . .	 0002	     Word
  EnvResourceO . . . . . . . . . . . .	 0004	     Word
  EnvResourceE . . . . . . . . . . . .	 0006	     Word
FarpX  . . . . . . . . . . . . . . . .	 0006
  Fr . . . . . . . . . . . . . . . . .	 0000	     DWord
  Pt . . . . . . . . . . . . . . . . .	 0000	     Word
  Sg . . . . . . . . . . . . . . . . .	 0002	     Word
  Limit  . . . . . . . . . . . . . . .	 0004	     Word
  Len  . . . . . . . . . . . . . . . .	 0004	     Word
Farp . . . . . . . . . . . . . . . . .	 0004
  Pt . . . . . . . . . . . . . . . . .	 0000	     Word
  Sg . . . . . . . . . . . . . . . . .	 0002	     Word
Fshape . . . . . . . . . . . . . . . .	 001A
  Flags  . . . . . . . . . . . . . . .	 0000	     Word
  ToQual . . . . . . . . . . . . . . .	 0002	     Word
  Lines  . . . . . . . . . . . . . . .	 0004	     DWord
  Hand . . . . . . . . . . . . . . . .	 0008	     Word
  Other_Position . . . . . . . . . . .	 000A	     DWord
  Exten  . . . . . . . . . . . . . . .	 000E	     Byte
  TraceWidth . . . . . . . . . . . . .	 000F	     Byte
  Symbols  . . . . . . . . . . . . . .	 0010	     Word
  Code . . . . . . . . . . . . . . . .	 0012	     Word
  Vars . . . . . . . . . . . . . . . .	 0014	     Word
  Consts . . . . . . . . . . . . . . .	 0016	     Word
  ProgScope  . . . . . . . . . . . . .	 0018	     Word
Hshape . . . . . . . . . . . . . . . .	 0010
  Hdw0 . . . . . . . . . . . . . . . .	 0000	     DWord
  SegSize  . . . . . . . . . . . . . .	 0000	     Word
  Bump . . . . . . . . . . . . . . . .	 0002	     Word
  Avail  . . . . . . . . . . . . . . .	 0004	     Word
  Trigger  . . . . . . . . . . . . . .	 0006	     Word
  Link . . . . . . . . . . . . . . . .	 0008	     Word
  TreeBin  . . . . . . . . . . . . . .	 000A	     Word
  Original . . . . . . . . . . . . . .	 000A	     Word
  UpPool . . . . . . . . . . . . . . .	 000A	     Word
  Probe  . . . . . . . . . . . . . . .	 000C	     Word
  TreeProg . . . . . . . . . . . . . .	 000E	     Word
  Labels . . . . . . . . . . . . . . .	 000E	     Word
InsBlock . . . . . . . . . . . . . . .	 0015
  MajMin . . . . . . . . . . . . . . .	 0000	     Word
  Minor  . . . . . . . . . . . . . . .	 0000	     Byte
  Major  . . . . . . . . . . . . . . .	 0001	     Byte
  Value  . . . . . . . . . . . . . . .	 0002	     Word
  Named  . . . . . . . . . . . . . . .	 0004	     Word
  Position . . . . . . . . . . . . . .	 0004	     Word
  KeysList . . . . . . . . . . . . . .	 0006	     Word
  ArgNum . . . . . . . . . . . . . . .	 0008	     Byte
  Desc . . . . . . . . . . . . . . . .	 0009	     Byte
  Hex  . . . . . . . . . . . . . . . .	 000A	     Byte
  Char . . . . . . . . . . . . . . . .	 000A	     Byte
  Options  . . . . . . . . . . . . . .	 000B	     Word
  OptsHi . . . . . . . . . . . . . . .	 000D	     Word
  Digits . . . . . . . . . . . . . . .	 000F	     Word
  TokPos . . . . . . . . . . . . . . .	 0011	     Word
  TokLen . . . . . . . . . . . . . . .	 0013	     Word
Jshape . . . . . . . . . . . . . . . .	 000E
  Valued . . . . . . . . . . . . . . .	 0000	     QWord
  Pair . . . . . . . . . . . . . . . .	 0008	     DWord
  Lower  . . . . . . . . . . . . . . .	 0008	     Word
  Higher . . . . . . . . . . . . . . .	 000A	     Word
  KeyLen . . . . . . . . . . . . . . .	 000C	     Word
  Key  . . . . . . . . . . . . . . . .	 000E	     Byte
Lshape . . . . . . . . . . . . . . . .	 007C
  DigitsFuzz . . . . . . . . . . . . .	 0000	     DWord
  Digits . . . . . . . . . . . . . . .	 0000	     Word
  Fuzz . . . . . . . . . . . . . . . .	 0002	     Word
  Form . . . . . . . . . . . . . . . .	 0004	     Byte
  StartTime  . . . . . . . . . . . . .	 0005	     QWord
  TraceLetter  . . . . . . . . . . . .	 000D	     Byte
  TraceWord  . . . . . . . . . . . . .	 000D	     Word
  Active . . . . . . . . . . . . . . .	 000F	     QWord
  Alternate  . . . . . . . . . . . . .	 0017	     QWord
  Syntax . . . . . . . . . . . . . . .	 001F	     Byte
  LostDigits . . . . . . . . . . . . .	 0020	     Byte
  NoValue  . . . . . . . . . . . . . .	 0021	     Byte
  NotReady . . . . . . . . . . . . . .	 0022	     Byte
  Error  . . . . . . . . . . . . . . .	 0023	     Byte
  Failure  . . . . . . . . . . . . . .	 0024	     Byte
  Halt . . . . . . . . . . . . . . . .	 0025	     Byte
  TrapName . . . . . . . . . . . . . .	 0026	     Word
  EventLevel . . . . . . . . . . . . .	 0034	     Word
  Condition  . . . . . . . . . . . . .	 0036	     Word
  ConditionDescription . . . . . . . .	 0038	     QWord
  ConditionExtra . . . . . . . . . . .	 0040	     QWord
  Inherit  . . . . . . . . . . . . . .	 0048	     Byte
  ClauseTime . . . . . . . . . . . . .	 0048	     QWord
  ClauseLocal  . . . . . . . . . . . .	 0050	     QWord
  PendingDescription . . . . . . . . .	 0058	     QWord
  PendingExtra . . . . . . . . . . . .	 0060	     QWord
  LevelDO  . . . . . . . . . . . . . .	 0068	     Word
  StackSave  . . . . . . . . . . . . .	 006A	     DWord
  File . . . . . . . . . . . . . . . .	 006E	     Word
  ProgScope  . . . . . . . . . . . . .	 0070	     Word
  VarScope . . . . . . . . . . . . . .	 0072	     Word
  Access . . . . . . . . . . . . . . .	 0074	     Word
  Flags  . . . . . . . . . . . . . . .	 0074	     Word
  UpLevel  . . . . . . . . . . . . . .	 0076	     Word
  Resume . . . . . . . . . . . . . . .	 0078	     Word
  Arg0 . . . . . . . . . . . . . . . .	 007A	     Word
PushShape  . . . . . . . . . . . . . .	 0010
  di_  . . . . . . . . . . . . . . . .	 0000	     Word
  si_  . . . . . . . . . . . . . . . .	 0002	     Word
  bp_  . . . . . . . . . . . . . . . .	 0004	     Word
  sp_  . . . . . . . . . . . . . . . .	 0006	     Word
  bx_  . . . . . . . . . . . . . . . .	 0008	     Word
  bl_  . . . . . . . . . . . . . . . .	 0008	     Byte
  bh_  . . . . . . . . . . . . . . . .	 0009	     Byte
  dx_  . . . . . . . . . . . . . . . .	 000A	     Word
  dl_  . . . . . . . . . . . . . . . .	 000A	     Byte
  dh_  . . . . . . . . . . . . . . . .	 000B	     Byte
  cx_  . . . . . . . . . . . . . . . .	 000C	     Word
  cl_  . . . . . . . . . . . . . . . .	 000C	     Byte
  ch_  . . . . . . . . . . . . . . . .	 000D	     Byte
  ax_  . . . . . . . . . . . . . . . .	 000E	     Word
  al_  . . . . . . . . . . . . . . . .	 000E	     Byte
  ah_  . . . . . . . . . . . . . . . .	 000F	     Byte
Sshape . . . . . . . . . . . . . . . .	 0010
  State  . . . . . . . . . . . . . . .	 0000	     Word
  Parser . . . . . . . . . . . . . . .	 0002	     Word
  ClauseWas  . . . . . . . . . . . . .	 0004	     Word
  Token  . . . . . . . . . . . . . . .	 0006	     Word
  Operation  . . . . . . . . . . . . .	 0008	     DWord
  Caller . . . . . . . . . . . . . . .	 000C	     Word
  Parms  . . . . . . . . . . . . . . .	 000E	     Word
  JumpSite . . . . . . . . . . . . . .	 0006	     Word
  SoFar  . . . . . . . . . . . . . . .	 0008	     Word
  WhatCV . . . . . . . . . . . . . . .	 0008	     Word
  SelectSite . . . . . . . . . . . . .	 0008	     Word
Vshape . . . . . . . . . . . . . . . .	 0008
  String . . . . . . . . . . . . . . .	 0000	     Byte
  Dtype  . . . . . . . . . . . . . . .	 0007	     Byte
  Sign . . . . . . . . . . . . . . . .	 0000	     Byte
  ExpAnd . . . . . . . . . . . . . . .	 0000	     DWord
  ExpoUses . . . . . . . . . . . . . .	 0000	     Byte
  ExpoSign . . . . . . . . . . . . . .	 0003	     Byte
  Mantissa . . . . . . . . . . . . . .	 0004	     DWord
  MantLow  . . . . . . . . . . . . . .	 0004	     Word
  MantHigh . . . . . . . . . . . . . .	 0006	     Word
  OverExpo . . . . . . . . . . . . . .	 0000	     DWord
  OverMant . . . . . . . . . . . . . .	 0004	     DWord
  Fr . . . . . . . . . . . . . . . . .	 0000	     DWord
  Pt . . . . . . . . . . . . . . . . .	 0000	     Word
  Sg . . . . . . . . . . . . . . . . .	 0002	     Word
  Limit  . . . . . . . . . . . . . . .	 0004	     Word
  Len  . . . . . . . . . . . . . . . .	 0004	     Word
  LabelValue . . . . . . . . . . . . .	 0000	     Word
  LabelType  . . . . . . . . . . . . .	 0006	     Word
  WhichCon . . . . . . . . . . . . . .	 0000	     Word
  PcodePos . . . . . . . . . . . . . .	 0002	     Word
  HeldOver . . . . . . . . . . . . . .	 0000	     Word
  Pair . . . . . . . . . . . . . . . .	 0000	     DWord
  Lower  . . . . . . . . . . . . . . .	 0000	     Word
  Higher . . . . . . . . . . . . . . .	 0002	     Word
  Here . . . . . . . . . . . . . . . .	 0004	     Word
Yshape . . . . . . . . . . . . . . . .	 0053
  N1 . . . . . . . . . . . . . . . . .	 0004	     DWord
  N10  . . . . . . . . . . . . . . . .	 0008	     DWord
  N100 . . . . . . . . . . . . . . . .	 000C	     DWord
  N1000  . . . . . . . . . . . . . . .	 0010	     DWord
  N1e4 . . . . . . . . . . . . . . . .	 0014	     DWord
  N1e5 . . . . . . . . . . . . . . . .	 0018	     DWord
  N1e6 . . . . . . . . . . . . . . . .	 001C	     DWord
  N1e7 . . . . . . . . . . . . . . . .	 0020	     DWord
  N1e8 . . . . . . . . . . . . . . . .	 0024	     DWord
  N1e9 . . . . . . . . . . . . . . . .	 0028	     DWord
  N1664525 . . . . . . . . . . . . . .	 002C	     DWord
  ExponHi  . . . . . . . . . . . . . .	 0030	     DWord
  ExponLo  . . . . . . . . . . . . . .	 0034	     DWord
  Cseg . . . . . . . . . . . . . . . .	 0038	     Word
  DOS  . . . . . . . . . . . . . . . .	 003A	     DWord
  DosPool  . . . . . . . . . . . . . .	 003E	     Byte
  DqCrLf . . . . . . . . . . . . . . .	 004C	     Byte
  CrLf . . . . . . . . . . . . . . . .	 004D	     Byte
  StackSave  . . . . . . . . . . . . .	 004F	     DWord
Zshape . . . . . . . . . . . . . . . .	 1378
  w  . . . . . . . . . . . . . . . . .	 0000	     Word
  SegSize  . . . . . . . . . . . . . .	 0000	     Word
  ProgramCancel  . . . . . . . . . . .	 0002	     DWord
  Program  . . . . . . . . . . . . . .	 0002	     Word
  Cancel . . . . . . . . . . . . . . .	 0004	     Word
  Stack  . . . . . . . . . . . . . . .	 0006	     Word
  ClauseLine . . . . . . . . . . . . .	 0008	     Word
  Middles  . . . . . . . . . . . . . .	 000A	     Word
  Clause . . . . . . . . . . . . . . .	 000C	     Word
  Gen  . . . . . . . . . . . . . . . .	 000E	     Word
  KWMiddle . . . . . . . . . . . . . .	 0010	     Word
  KWFound  . . . . . . . . . . . . . .	 0012	     Word
  Stdout . . . . . . . . . . . . . . .	 0014	     Word
  Stderr . . . . . . . . . . . . . . .	 0016	     Word
  SourceHandle . . . . . . . . . . . .	 0018	     Word
  HowInvoked . . . . . . . . . . . . .	 001A	     Word
  Radix  . . . . . . . . . . . . . . .	 001C	     Byte
  AxAsNum  . . . . . . . . . . . . . .	 001D	     Byte
  Tag  . . . . . . . . . . . . . . . .	 0023	     Byte
  Seed . . . . . . . . . . . . . . . .	 0028	     DWord
  ParseResetSp . . . . . . . . . . . .	 002C	     Word
  XCycleResetSp  . . . . . . . . . . .	 002E	     Word
  Dumper . . . . . . . . . . . . . . .	 0030	     Word
  Stash  . . . . . . . . . . . . . . .	 0032	     Word
  Resolved . . . . . . . . . . . . . .	 0034	     Word
  Cursor . . . . . . . . . . . . . . .	 0036	     Word
  Stream . . . . . . . . . . . . . . .	 0038	     Word
  Queue  . . . . . . . . . . . . . . .	 003A	     Word
  InsSource  . . . . . . . . . . . . .	 003C	     DWord
  SysFile  . . . . . . . . . . . . . .	 003C	     DWord
  File . . . . . . . . . . . . . . . .	 003C	     Word
  SysFiles . . . . . . . . . . . . . .	 003E	     Word
  Consts . . . . . . . . . . . . . . .	 0040	     Word
  Vars . . . . . . . . . . . . . . . .	 0042	     Word
  ProgScope  . . . . . . . . . . . . .	 0044	     Word
  VarScope . . . . . . . . . . . . . .	 0046	     Word
  Symbols  . . . . . . . . . . . . . .	 0048	     Word
  Code . . . . . . . . . . . . . . . .	 004A	     Word
  Zone . . . . . . . . . . . . . . . .	 004C	     Word
  Stem . . . . . . . . . . . . . . . .	 004E	     Word
  PoolPool . . . . . . . . . . . . . .	 0050	     Word
  Level  . . . . . . . . . . . . . . .	 0052	     Word
  Base0  . . . . . . . . . . . . . . .	 0054	     Word
  CurrentDO  . . . . . . . . . . . . .	 0056	     Word
  ResumeP  . . . . . . . . . . . . . .	 0058	     Word
  ResumeDF . . . . . . . . . . . . . .	 005A	     DWord
  ResumeD  . . . . . . . . . . . . . .	 005A	     Word
  ResumeF  . . . . . . . . . . . . . .	 005C	     Word
  ResumeS  . . . . . . . . . . . . . .	 005E	     Byte
  DigitsFuzz . . . . . . . . . . . . .	 005F	     DWord
  Digits . . . . . . . . . . . . . . .	 005F	     Word
  Fuzz . . . . . . . . . . . . . . . .	 0061	     Word
  Ceiling  . . . . . . . . . . . . . .	 0063	     DWord
  DivBreak . . . . . . . . . . . . . .	 0067	     DWord
  TwiceDigits  . . . . . . . . . . . .	 006B	     DWord
  UseGeneral . . . . . . . . . . . . .	 006F	     Word
  InsLine  . . . . . . . . . . . . . .	 0071	     Word
  InsBif . . . . . . . . . . . . . . .	 0073	     Byte
  InsOperator  . . . . . . . . . . . .	 0074	     DWord
  InsUnqual  . . . . . . . . . . . . .	 0078	     Word
  Insert . . . . . . . . . . . . . . .	 007A	      0015
  Inserts  . . . . . . . . . . . . . .	 008F	      0015
  SignM  . . . . . . . . . . . . . . .	 00A4	     Byte
  SignE  . . . . . . . . . . . . . . .	 00A5	     Byte
  MantPos  . . . . . . . . . . . . . .	 00A6	     Word
  MantPosZi  . . . . . . . . . . . . .	 00A8	     Word
  ExpPos . . . . . . . . . . . . . . .	 00AA	     Word
  ExpPosZi . . . . . . . . . . . . . .	 00AC	     Word
  ExpSign  . . . . . . . . . . . . . .	 00AE	     Word
  MantSize . . . . . . . . . . . . . .	 00B0	     Word
  OpIs . . . . . . . . . . . . . . . .	 00B2	     Byte
  Flags  . . . . . . . . . . . . . . .	 00B3	     Byte
  BifParmsHi . . . . . . . . . . . . .	 00B4	     Byte
  BifByte  . . . . . . . . . . . . . .	 00B5	     Byte
  TraceAlign . . . . . . . . . . . . .	 00B6	     DWord
  TraceSource  . . . . . . . . . . . .	 00BA	     DWord
  TraceEnds  . . . . . . . . . . . . .	 00BE	     DWord
  TraceSourceColumn  . . . . . . . . .	 00C2	     Word
  TraceEndsColumn  . . . . . . . . . .	 00C4	     Word
  DualCode . . . . . . . . . . . . . .	 00C6	     Word
  TraceOp  . . . . . . . . . . . . . .	 00C8	     Byte
  Relative . . . . . . . . . . . . . .	 00C9	     DWord
  RelativeNow  . . . . . . . . . . . .	 00CD	     DWord
  Continue . . . . . . . . . . . . . .	 00D1	     Word
  StackX . . . . . . . . . . . . . . .	 00D3	     Word
  TraceLine  . . . . . . . . . . . . .	 00D5	     Word
  InhibitTrace . . . . . . . . . . . .	 00D7	     DWord
  InhibitPauses  . . . . . . . . . . .	 00DB	     DWord
  Target . . . . . . . . . . . . . . .	 00DF	     Word
  Scanp  . . . . . . . . . . . . . . .	 00E1	     Word
  EndUsedBuffer  . . . . . . . . . . .	 00E3	     Word
  NearEnd  . . . . . . . . . . . . . .	 00E5	     Word
  CatOp  . . . . . . . . . . . . . . .	 00E7	     Byte
  RadixBadWhite  . . . . . . . . . . .	 00E8	     Byte
  BackExponent . . . . . . . . . . . .	 00E9	     Word
  LastContent  . . . . . . . . . . . .	 00EB	     Word
  CommaLine  . . . . . . . . . . . . .	 00ED	     Word
  Condition  . . . . . . . . . . . . .	 00EF	     Word
  UntilPlace . . . . . . . . . . . . .	 00F1	     Word
  StemSym  . . . . . . . . . . . . . .	 00F3	     Word
  SoFar  . . . . . . . . . . . . . . .	 00F5	     Word
  PcodePos . . . . . . . . . . . . . .	 00F7	     Word
  TraceOnly  . . . . . . . . . . . . .	 00F9	     Word
  CompareAt  . . . . . . . . . . . . .	 00FB	     Word
  StackHi  . . . . . . . . . . . . . .	 00FD	     Word
  StackLo  . . . . . . . . . . . . . .	 00FF	     Word
  OnSoft . . . . . . . . . . . . . . .	 0101	     Word
  Tail . . . . . . . . . . . . . . . .	 0103	     Word
  TokNum . . . . . . . . . . . . . . .	 0105	     Word
  TokNow . . . . . . . . . . . . . . .	 0107	     Word
  TokWas . . . . . . . . . . . . . . .	 0109	     Word
  TokData  . . . . . . . . . . . . . .	 010B	     Word
  Synch  . . . . . . . . . . . . . . .	 010D	     Word
  Lines  . . . . . . . . . . . . . . .	 010F	     Word
  MsgBegin . . . . . . . . . . . . . .	 0111	     Word
  MsgSoFar . . . . . . . . . . . . . .	 0113	     Word
  PreZi  . . . . . . . . . . . . . . .	 0115	     Word
  TargetMajMin . . . . . . . . . . . .	 0117	     Word
  TargetMinor  . . . . . . . . . . . .	 0117	     Byte
  TargetMajor  . . . . . . . . . . . .	 0118	     Byte
  EnvSeg . . . . . . . . . . . . . . .	 0119	     Word
  ForPSP . . . . . . . . . . . . . . .	 011B	     DWord
  Fcb1 . . . . . . . . . . . . . . . .	 011F	     DWord
  Fcb2 . . . . . . . . . . . . . . . .	 0123	     DWord
  AtPause  . . . . . . . . . . . . . .	 0127	     Word
  ArgsB  . . . . . . . . . . . . . . .	 0129	     Byte
  ArgsB0 . . . . . . . . . . . . . . .	 012A	     Word
  Parsee . . . . . . . . . . . . . . .	 012C	     FWord
  ParseeNum  . . . . . . . . . . . . .	 0132	     Word
  PattLenEtc . . . . . . . . . . . . .	 0134	     Word
  BreakStart . . . . . . . . . . . . .	 0136	     Word
  BreakEnd . . . . . . . . . . . . . .	 0138	     Word
  EnvNow . . . . . . . . . . . . . . .	 013A	     QWord
  CatTotal . . . . . . . . . . . . . .	 0142	     Word
  LastTarget . . . . . . . . . . . . .	 0144	     Word
  NewJshape  . . . . . . . . . . . . .	 0146	     Word
  FromDos  . . . . . . . . . . . . . .	 0148	     Word
  FromDosWas . . . . . . . . . . . . .	 014A	     Word
  FromDosZi  . . . . . . . . . . . . .	 014C	     Word
  MemoryTable  . . . . . . . . . . . .	 014E	     FWord
  MemoryTableZi  . . . . . . . . . . .	 018A	     Byte
  Left . . . . . . . . . . . . . . . .	 018A	     Word
  Right  . . . . . . . . . . . . . . .	 018C	     Word
  AllocBase  . . . . . . . . . . . . .	 018E	     DWord
  DsWas  . . . . . . . . . . . . . . .	 0192	     Word
  DsNew  . . . . . . . . . . . . . . .	 0194	     Word
  EsWas  . . . . . . . . . . . . . . .	 0196	     Word
  EsNew  . . . . . . . . . . . . . . .	 0198	     Word
  FsWas  . . . . . . . . . . . . . . .	 019A	     Word
  FsNew  . . . . . . . . . . . . . . .	 019C	     Word
  GsWas  . . . . . . . . . . . . . . .	 019E	     Word
  GsNew  . . . . . . . . . . . . . . .	 01A0	     Word
  DigitCount . . . . . . . . . . . . .	 01A2	     Word
  SerialNow  . . . . . . . . . . . . .	 01A4	     Byte
  Serial . . . . . . . . . . . . . . .	 01A5	     Byte
  CommandArg . . . . . . . . . . . . .	 1370	     QWord


Records:

                N a m e                  Width     # fields
                                         Shift     Width     Mask      Initial

CancelRec  . . . . . . . . . . . . . .	 0010	   0010
  Format5  . . . . . . . . . . . . . .	 000F	   0001	     8000     ?
  AssignDO . . . . . . . . . . . . . .	 000E	   0001	     4000     ?
  ForExpose  . . . . . . . . . . . . .	 000D	   0001	     2000     ?
  FromIterCV . . . . . . . . . . . . .	 000C	   0001	     1000     ?
  ForBIF . . . . . . . . . . . . . . .	 000B	   0001	     0800     ?
  TokIsValue . . . . . . . . . . . . .	 000A	   0001	     0400     ?
  ExpRange . . . . . . . . . . . . . .	 0009	   0001	     0200     ?
  Description  . . . . . . . . . . . .	 0008	   0001	     0100     ?
  Compacted  . . . . . . . . . . . . .	 0007	   0001	     0080     ?
  BcodeInterpret . . . . . . . . . . .	 0006	   0001	     0040     ?
  MapOnly  . . . . . . . . . . . . . .	 0005	   0001	     0020     ?
  ParseUpper . . . . . . . . . . . . .	 0004	   0001	     0010     ?
  ParseTrace . . . . . . . . . . . . .	 0003	   0001	     0008     ?
  SourceFiles  . . . . . . . . . . . .	 0002	   0001	     0004     ?
  BoolBefore . . . . . . . . . . . . .	 0001	   0001	     0002     ?
  WasDropped . . . . . . . . . . . . .	 0000	   0001	     0001     ?
ClauseRec  . . . . . . . . . . . . . .	 0010	   0010
  WasUpper . . . . . . . . . . . . . .	 000F	   0001	     8000     ?
  OffFlag  . . . . . . . . . . . . . .	 000E	   0001	     4000     ?
  Condition  . . . . . . . . . . . . .	 000D	   0001	     2000     ?
  Append . . . . . . . . . . . . . . .	 000C	   0001	     1000     ?
  Signal . . . . . . . . . . . . . . .	 000B	   0001	     0800     ?
  ClauseSet  . . . . . . . . . . . . .	 000A	   0001	     0400     ?
  CVar . . . . . . . . . . . . . . . .	 0009	   0001	     0200     ?
  Repit  . . . . . . . . . . . . . . .	 0008	   0001	     0100     ?
  PosEq  . . . . . . . . . . . . . . .	 0007	   0001	     0080     ?
  NotAssign  . . . . . . . . . . . . .	 0006	   0001	     0040     ?
  WasParse . . . . . . . . . . . . . .	 0005	   0001	     0020     ?
  InParse  . . . . . . . . . . . . . .	 0004	   0001	     0010     ?
  Tailed . . . . . . . . . . . . . . .	 0003	   0001	     0008     ?
  WasTailed  . . . . . . . . . . . . .	 0002	   0001	     0004     ?
  PosPlus  . . . . . . . . . . . . . .	 0001	   0001	     0002     ?
  PosMinus . . . . . . . . . . . . . .	 0000	   0001	     0001     ?
ConditionRec . . . . . . . . . . . . .	 0008	   0005
  Enabling . . . . . . . . . . . . . .	 0007	   0001	     0080     ?
  Delayed  . . . . . . . . . . . . . .	 0006	   0001	     0040     ?
  PendingNow . . . . . . . . . . . . .	 0005	   0001	     0020     ?
  Instruction  . . . . . . . . . . . .	 0004	   0001	     0010     ?
  CRspare  . . . . . . . . . . . . . .	 0000	   0004	     000F     ?
ErrorRec . . . . . . . . . . . . . . .	 0010	   0004
  HasShiftOn . . . . . . . . . . . . .	 000F	   0001	     8000     ?
  ErrorAloneOn . . . . . . . . . . . .	 000E	   0001	     4000     ?
  MajorField . . . . . . . . . . . . .	 0006	   0008	     3FC0     ?
  MinorField . . . . . . . . . . . . .	 0000	   0006	     003F     ?
FRec . . . . . . . . . . . . . . . . .	 0010	   0009
  Qual . . . . . . . . . . . . . . . .	 000F	   0001	     8000     ?
  Read . . . . . . . . . . . . . . . .	 000E	   0001	     4000     ?
  Open . . . . . . . . . . . . . . . .	 000D	   0001	     2000     ?
  BeenRead . . . . . . . . . . . . . .	 000C	   0001	     1000     ?
  BeenWrite  . . . . . . . . . . . . .	 000B	   0001	     0800     ?
  WriteMode  . . . . . . . . . . . . .	 000A	   0001	     0400     ?
  IsSource . . . . . . . . . . . . . .	 0009	   0001	     0200     ?
  BeenCompiled . . . . . . . . . . . .	 0008	   0001	     0100     ?
  FFpad  . . . . . . . . . . . . . . .	 0000	   0008	     00FF     ?
GenRec . . . . . . . . . . . . . . . .	 0010	   0005
  Dual . . . . . . . . . . . . . . . .	 000F	   0001	     8000     ?
  DualPending  . . . . . . . . . . . .	 000E	   0001	     4000     ?
  DualGen  . . . . . . . . . . . . . .	 000D	   0001	     2000     ?
  DualOnly . . . . . . . . . . . . . .	 000C	   0001	     1000     ?
  GenSpare . . . . . . . . . . . . . .	 0000	   000C	     0FFF     ?
KeyRec . . . . . . . . . . . . . . . .	 0008	   0003
  KeyFlags . . . . . . . . . . . . . .	 0005	   0003	     00E0     ?
  EndList  . . . . . . . . . . . . . .	 0004	   0001	     0010     ?
  KeyLen . . . . . . . . . . . . . . .	 0000	   0004	     000F     ?
LevelRecI  . . . . . . . . . . . . . .	 0010	   0003
  LIPad  . . . . . . . . . . . . . . .	 0002	   000E	     FFFC     ?
  Interactive  . . . . . . . . . . . .	 0001	   0001	     0002     ?
  ConditionInstruction . . . . . . . .	 0000	   0001	     0001     ?
LevelRec . . . . . . . . . . . . . . .	 0010	   0007
  Lpad . . . . . . . . . . . . . . . .	 0008	   0008	     FF00     ?
  InheritDone  . . . . . . . . . . . .	 0007	   0001	     0080     ?
  DigitsSet  . . . . . . . . . . . . .	 0006	   0001	     0040     ?
  IsProcedure  . . . . . . . . . . . .	 0005	   0001	     0020     ?
  IsExternal . . . . . . . . . . . . .	 0004	   0001	     0010     ?
  IsFunction . . . . . . . . . . . . .	 0003	   0001	     0008     ?
  Lpad2  . . . . . . . . . . . . . . .	 0000	   0003	     0007     ?
LoopsRec . . . . . . . . . . . . . . .	 0008	   0007
  LoopsPad . . . . . . . . . . . . . .	 0006	   0002	     00C0     ?
  HasDot . . . . . . . . . . . . . . .	 0005	   0001	     0020     ?
  HasDots  . . . . . . . . . . . . . .	 0004	   0001	     0010     ?
  HasTo  . . . . . . . . . . . . . . .	 0003	   0001	     0008     ?
  HasFor . . . . . . . . . . . . . . .	 0002	   0001	     0004     ?
  IsInterp . . . . . . . . . . . . . .	 0001	   0001	     0002     ?
  ByDown . . . . . . . . . . . . . . .	 0000	   0001	     0001     ?
MiddleRec  . . . . . . . . . . . . . .	 0010	   0010
  NotLabel . . . . . . . . . . . . . .	 000F	   0001	     8000     ?
  SemiAfter  . . . . . . . . . . . . .	 000E	   0001	     4000     ?
  ValueBefore  . . . . . . . . . . . .	 000D	   0001	     2000     ?
  AbutOK . . . . . . . . . . . . . . .	 000C	   0001	     1000     ?
  NoBlanks . . . . . . . . . . . . . .	 000B	   0001	     0800     ?
  ModEquals  . . . . . . . . . . . . .	 000A	   0001	     0400     ?
  EndClause  . . . . . . . . . . . . .	 0009	   0001	     0200     ?
  ImplicitValue  . . . . . . . . . . .	 0008	   0001	     0100     ?
  CheckDO  . . . . . . . . . . . . . .	 0007	   0001	     0080     ?
  TargetSymbol . . . . . . . . . . . .	 0006	   0001	     0040     ?
  Function . . . . . . . . . . . . . .	 0005	   0001	     0020     ?
  TakenConstant  . . . . . . . . . . .	 0004	   0001	     0010     ?
  LookLabel  . . . . . . . . . . . . .	 0003	   0001	     0008     ?
  LookBin  . . . . . . . . . . . . . .	 0002	   0001	     0004     ?
  DotOK  . . . . . . . . . . . . . . .	 0001	   0001	     0002     ?
  MRspare  . . . . . . . . . . . . . .	 0000	   0001	     0001     ?
OperatorRec  . . . . . . . . . . . . .	 0008	   0006
  InTypes  . . . . . . . . . . . . . .	 0006	   0002	     00C0     ?
  ResultType . . . . . . . . . . . . .	 0004	   0002	     0030     ?
  AppendNum  . . . . . . . . . . . . .	 0003	   0001	     0008     ?
  AppendRef  . . . . . . . . . . . . .	 0002	   0001	     0004     ?
  DownOne  . . . . . . . . . . . . . .	 0001	   0001	     0002     ?
  EndsClause . . . . . . . . . . . . .	 0000	   0001	     0001     ?
ParmsRec . . . . . . . . . . . . . . .	 0008	   0003
  ParmsMin . . . . . . . . . . . . . .	 0006	   0002	     00C0     ?
  ParmsXtr . . . . . . . . . . . . . .	 0004	   0002	     0030     ?
  NonCheck . . . . . . . . . . . . . .	 0000	   0004	     000F     ?
ParserRec  . . . . . . . . . . . . . .	 0010	   0005
  ParserPad  . . . . . . . . . . . . .	 0004	   000C	     FFF0     ?
  DoRep  . . . . . . . . . . . . . . .	 0003	   0001	     0008     ?
  DoCV . . . . . . . . . . . . . . . .	 0002	   0001	     0004     ?
  Forever  . . . . . . . . . . . . . .	 0001	   0001	     0002     ?
  DoDataHost . . . . . . . . . . . . .	 0000	   0001	     0001     ?
ProgramRec . . . . . . . . . . . . . .	 0010	   000B
  API_Enabled  . . . . . . . . . . . .	 000F	   0001	     8000     ?
  Repass . . . . . . . . . . . . . . .	 000E	   0001	     4000     ?
  LabelsBad  . . . . . . . . . . . . .	 000D	   0001	     2000     ?
  FirstBetween . . . . . . . . . . . .	 000C	   0001	     1000     ?
  EndSource  . . . . . . . . . . . . .	 000B	   0001	     0800     ?
  BifCheck . . . . . . . . . . . . . .	 000A	   0001	     0400     ?
  RandomSeeded . . . . . . . . . . . .	 0009	   0001	     0200     ?
  NotS9  . . . . . . . . . . . . . . .	 0008	   0001	     0100     ?
  TraceIF  . . . . . . . . . . . . . .	 0007	   0001	     0080     ?
  ShowELSE . . . . . . . . . . . . . .	 0006	   0001	     0040     ?
  PRSpare  . . . . . . . . . . . . . .	 0000	   0006	     003F     ?
RedRec . . . . . . . . . . . . . . . .	 0010	   0005
  HasShiftOff  . . . . . . . . . . . .	 000F	   0001	     8000     ?
  HasAction  . . . . . . . . . . . . .	 000E	   0001	     4000     ?
  PruneCt  . . . . . . . . . . . . . .	 000C	   0002	     3000     ?
  Rtype  . . . . . . . . . . . . . . .	 000A	   0002	     0C00     ?
  Rstate . . . . . . . . . . . . . . .	 0000	   000A	     03FF     ?
ShiftRec . . . . . . . . . . . . . . .	 0010	   0008
  HasShift . . . . . . . . . . . . . .	 000F	   0001	     8000     ?
  ErrorAlone . . . . . . . . . . . . .	 000E	   0001	     4000     ?
  CatFlag  . . . . . . . . . . . . . .	 000D	   0001	     2000     ?
  HasKeys  . . . . . . . . . . . . . .	 000C	   0001	     1000     ?
  Reference  . . . . . . . . . . . . .	 000B	   0001	     0800     ?
  Direct . . . . . . . . . . . . . . .	 000A	   0001	     0400     ?
  Indexb . . . . . . . . . . . . . . .	 0005	   0005	     03E0     ?
  Index  . . . . . . . . . . . . . . .	 0000	   0005	     001F     ?
TokRec . . . . . . . . . . . . . . . .	 0010	   0003
  X02  . . . . . . . . . . . . . . . .	 000F	   0001	     8000     ?
  NdxbT  . . . . . . . . . . . . . . .	 000A	   0005	     7C00     ?
  Aim  . . . . . . . . . . . . . . . .	 0000	   000A	     03FF     ?
TokVal . . . . . . . . . . . . . . . .	 0008	   0002
  GrpNdx . . . . . . . . . . . . . . .	 0002	   0006	     00FC     ?
  SubNum . . . . . . . . . . . . . . .	 0000	   0002	     0003     ?


Types:

                N a m e                  Size     Attr

Boolp  . . . . . . . . . . . . . . . .	 0002	  PTR Byte 
Bool . . . . . . . . . . . . . . . . .	 0001	  Byte 
Handlep  . . . . . . . . . . . . . . .	 0002	  PTR Word 
Handle . . . . . . . . . . . . . . . .	 0002	  Word 
Segp . . . . . . . . . . . . . . . . .	 0002	  Word 
Ulong  . . . . . . . . . . . . . . . .	 0004	  DWord 
Ushortp  . . . . . . . . . . . . . . .	 0002	  PTR Word 
Ushort . . . . . . . . . . . . . . . .	 0002	  Word 
bytep  . . . . . . . . . . . . . . . .	 0002	  PTR Byte 
charfp . . . . . . . . . . . . . . . .	 0004	  FarPTR Byte 
charp  . . . . . . . . . . . . . . . .	 0002	  PTR Byte 
char . . . . . . . . . . . . . . . . .	 0001	  Byte 
shortp . . . . . . . . . . . . . . . .	 0002	  PTR Word 
short  . . . . . . . . . . . . . . . .	 0002	  Word 


Segments and Groups:

                N a m e                 Size     Length   Align   Combine Class

DGROUP . . . . . . . . . . . . . . . .	GROUP
_DATA  . . . . . . . . . . . . . . . .	16 Bit	 0000	  Word	  Public  'DATA'	
STACK  . . . . . . . . . . . . . . . .	16 Bit	 0400	  Para	  Stack	  'STACK'	 
_TEXT  . . . . . . . . . . . . . . . .	16 Bit	 0550	  Word	  Public  'CODE'	


Symbols:

                N a m e                 Type     Value    Attr

$0 . . . . . . . . . . . . . . . . . .	Number	 0000h	 
$10  . . . . . . . . . . . . . . . . .	Number	 0007h	 
$11  . . . . . . . . . . . . . . . . .	Number	 0002h	 
$12  . . . . . . . . . . . . . . . . .	Number	 0001h	 
$15  . . . . . . . . . . . . . . . . .	Number	 001Bh	 
$16  . . . . . . . . . . . . . . . . .	Number	 0017h	 
$17  . . . . . . . . . . . . . . . . .	Number	 0019h	 
$18  . . . . . . . . . . . . . . . . .	Number	 0018h	 
$19  . . . . . . . . . . . . . . . . .	Number	 001Ah	 
$1 . . . . . . . . . . . . . . . . . .	Number	 0013h	 
$21  . . . . . . . . . . . . . . . . .	Number	 0016h	 
$23  . . . . . . . . . . . . . . . . .	Number	 001Eh	 
$28  . . . . . . . . . . . . . . . . .	Number	 0012h	 
$2 . . . . . . . . . . . . . . . . . .	Number	 0015h	 
$3 . . . . . . . . . . . . . . . . . .	Number	 0004h	 
$5 . . . . . . . . . . . . . . . . . .	Number	 0006h	 
$6 . . . . . . . . . . . . . . . . . .	Number	 0003h	 
$7 . . . . . . . . . . . . . . . . . .	Number	 000Eh	 
$8 . . . . . . . . . . . . . . . . . .	Number	 0014h	 
$9 . . . . . . . . . . . . . . . . . .	Number	 0009h	 
$?BIF  . . . . . . . . . . . . . . . .	Number	 004Ch	 
$?CLAUSELOCAL  . . . . . . . . . . . .	Number	 007Ch	 
$?CLAUSETIME . . . . . . . . . . . . .	Number	 0074h	 
$?Discard  . . . . . . . . . . . . . .	Number	 0010h	 
$?E  . . . . . . . . . . . . . . . . .	Number	 00B4h	 
$?LINEIN_POSITION  . . . . . . . . . .	Number	 006Ch	 
$?MN . . . . . . . . . . . . . . . . .	Number	 001Ch	 
$?MONTHS . . . . . . . . . . . . . . .	Number	 0084h	 
$?Nine . . . . . . . . . . . . . . . .	Number	 009Ch	 
$?Null . . . . . . . . . . . . . . . .	Number	 00ACh	 
$?OUTCOME  . . . . . . . . . . . . . .	Number	 0044h	 
$?Omitted  . . . . . . . . . . . . . .	Number	 0014h	 
$?RCx  . . . . . . . . . . . . . . . .	Number	 0028h	 
$?RC . . . . . . . . . . . . . . . . .	Number	 0034h	 
$?RESPONSE . . . . . . . . . . . . . .	Number	 0064h	 
$?RESULTx  . . . . . . . . . . . . . .	Number	 0020h	 
$?RESULT . . . . . . . . . . . . . . .	Number	 002Ch	 
$?RS . . . . . . . . . . . . . . . . .	Number	 0024h	 
$?SIGLx  . . . . . . . . . . . . . . .	Number	 0030h	 
$?SIGL . . . . . . . . . . . . . . . .	Number	 003Ch	 
$?STARTTIME  . . . . . . . . . . . . .	Number	 0094h	 
$?STREAMSTATE  . . . . . . . . . . . .	Number	 005Ch	 
$?STREAM . . . . . . . . . . . . . . .	Number	 0054h	 
$?SysVars  . . . . . . . . . . . . . .	Number	 0044h	 
$?S  . . . . . . . . . . . . . . . . .	Number	 00BCh	 
$?WEEKDAYS . . . . . . . . . . . . . .	Number	 008Ch	 
$?Zero . . . . . . . . . . . . . . . .	Number	 00A4h	 
$ADDRESS . . . . . . . . . . . . . . .	Number	 008Ch	 
$APPEND  . . . . . . . . . . . . . . .	Number	 0090h	 
$ARG . . . . . . . . . . . . . . . . .	Number	 0088h	 
$Abut  . . . . . . . . . . . . . . . .	Number	 004Ch	 
$And . . . . . . . . . . . . . . . . .	Number	 0018h	 
$Ashapes . . . . . . . . . . . . . . .	Number	 000Ah	 
$Assign  . . . . . . . . . . . . . . .	Number	 0054h	 
$Asterisk  . . . . . . . . . . . . . .	Number	 0011h	 
$AttribAnd . . . . . . . . . . . . . .	Number	 00D8h	 
$AttribComma . . . . . . . . . . . . .	Number	 00DCh	 
$AttribEq  . . . . . . . . . . . . . .	Number	 00EBh	 
$AttribGt  . . . . . . . . . . . . . .	Number	 00F0h	 
$AttribLine  . . . . . . . . . . . . .	Number	 00E7h	 
$AttribLt  . . . . . . . . . . . . . .	Number	 00EDh	 
$AttribMinus . . . . . . . . . . . . .	Number	 00E4h	 
$AttribOr  . . . . . . . . . . . . . .	Number	 00D5h	 
$AttribPlus  . . . . . . . . . . . . .	Number	 00E5h	 
$AttribSlash . . . . . . . . . . . . .	Number	 00D2h	 
$AttribStar  . . . . . . . . . . . . .	Number	 00D1h	 
$AwayString  . . . . . . . . . . . . .	Number	 00C0h	 
$BPcodesCeil . . . . . . . . . . . . .	Number	 005Dh	 
$BY  . . . . . . . . . . . . . . . . .	Number	 006Ch	 
$Bb  . . . . . . . . . . . . . . . . .	Number	 0004h	 
$BcodesBase  . . . . . . . . . . . . .	Number	 00B3h	 
$BifABBREV . . . . . . . . . . . . . .	Number	 0014h	 
$BifABS  . . . . . . . . . . . . . . .	Number	 002Ah	 
$BifADDRESS  . . . . . . . . . . . . .	Number	 0020h	 
$BifARG  . . . . . . . . . . . . . . .	Number	 0021h	 
$BifB2X  . . . . . . . . . . . . . . .	Number	 002Dh	 
$BifBITAND . . . . . . . . . . . . . .	Number	 0034h	 
$BifBITOR  . . . . . . . . . . . . . .	Number	 0035h	 
$BifBITXOR . . . . . . . . . . . . . .	Number	 0036h	 
$BifBase . . . . . . . . . . . . . . .	Number	 FFB9h	 
$BifC2D  . . . . . . . . . . . . . . .	Number	 0031h	 
$BifC2X  . . . . . . . . . . . . . . .	Number	 002Ch	 
$BifCENTER . . . . . . . . . . . . . .	Number	 0015h	 
$BifCENTRE . . . . . . . . . . . . . .	Number	 0016h	 
$BifCHANGESTR  . . . . . . . . . . . .	Number	 0042h	 
$BifCHARIN . . . . . . . . . . . . . .	Number	 0004h	 
$BifCHAROUT  . . . . . . . . . . . . .	Number	 0005h	 
$BifCHARS  . . . . . . . . . . . . . .	Number	 0003h	 
$BifCOMPARE  . . . . . . . . . . . . .	Number	 0017h	 
$BifCONDITION  . . . . . . . . . . . .	Number	 0022h	 
$BifCOPIES . . . . . . . . . . . . . .	Number	 0038h	 
$BifCOUNTSTR . . . . . . . . . . . . .	Number	 0041h	 
$BifD2C  . . . . . . . . . . . . . . .	Number	 0032h	 
$BifD2X  . . . . . . . . . . . . . . .	Number	 0033h	 
$BifDATATYPE . . . . . . . . . . . . .	Number	 001Fh	 
$BifDATE . . . . . . . . . . . . . . .	Number	 0000h	 
$BifDELSTR . . . . . . . . . . . . . .	Number	 0018h	 
$BifDELWORD  . . . . . . . . . . . . .	Number	 0019h	 
$BifDIGITS . . . . . . . . . . . . . .	Number	 0025h	 
$BifERRORTEXT  . . . . . . . . . . . .	Number	 000Eh	 
$BifFORMAT . . . . . . . . . . . . . .	Number	 0011h	 
$BifFORM . . . . . . . . . . . . . . .	Number	 001Eh	 
$BifFUZZ . . . . . . . . . . . . . . .	Number	 0024h	 
$BifINSERT . . . . . . . . . . . . . .	Number	 001Ch	 
$BifLASTPOS  . . . . . . . . . . . . .	Number	 001Bh	 
$BifLEFT . . . . . . . . . . . . . . .	Number	 003Dh	 
$BifLENGTH . . . . . . . . . . . . . .	Number	 0043h	 
$BifLINEIN . . . . . . . . . . . . . .	Number	 0006h	 
$BifLINEOUT  . . . . . . . . . . . . .	Number	 0007h	 
$BifLINES  . . . . . . . . . . . . . .	Number	 0002h	 
$BifMAX  . . . . . . . . . . . . . . .	Number	 0044h	 
$BifMIN  . . . . . . . . . . . . . . .	Number	 0045h	 
$BifOVERLAY  . . . . . . . . . . . . .	Number	 001Dh	 
$BifPOS  . . . . . . . . . . . . . . .	Number	 003Ch	 
$BifQUALIFY  . . . . . . . . . . . . .	Number	 000Bh	 
$BifQUEUED . . . . . . . . . . . . . .	Number	 003Fh	 
$BifRANDOM . . . . . . . . . . . . . .	Number	 0028h	 
$BifREVERSE  . . . . . . . . . . . . .	Number	 0029h	 
$BifRIGHT  . . . . . . . . . . . . . .	Number	 001Ah	 
$BifSIGN . . . . . . . . . . . . . . .	Number	 002Bh	 
$BifSOURCELINE . . . . . . . . . . . .	Number	 0026h	 
$BifSPACE  . . . . . . . . . . . . . .	Number	 000Fh	 
$BifSTREAM . . . . . . . . . . . . . .	Number	 0008h	 
$BifSTRIP  . . . . . . . . . . . . . .	Number	 0009h	 
$BifSUBSTR . . . . . . . . . . . . . .	Number	 003Eh	 
$BifSUBWORD  . . . . . . . . . . . . .	Number	 003Bh	 
$BifSYMBOL . . . . . . . . . . . . . .	Number	 0040h	 
$BifTIME . . . . . . . . . . . . . . .	Number	 0001h	 
$BifTRACE  . . . . . . . . . . . . . .	Number	 0023h	 
$BifTRANSLATE  . . . . . . . . . . . .	Number	 0010h	 
$BifTRUNC  . . . . . . . . . . . . . .	Number	 000Dh	 
$BifTag  . . . . . . . . . . . . . . .	Number	 0080h	 
$BifVALUE  . . . . . . . . . . . . . .	Number	 0037h	 
$BifVERIFY . . . . . . . . . . . . . .	Number	 000Ah	 
$BifWORDINDEX  . . . . . . . . . . . .	Number	 003Ah	 
$BifWORDLENGTH . . . . . . . . . . . .	Number	 0012h	 
$BifWORDPOS  . . . . . . . . . . . . .	Number	 0013h	 
$BifWORDS  . . . . . . . . . . . . . .	Number	 000Ch	 
$BifWORD . . . . . . . . . . . . . . .	Number	 0039h	 
$BifX2B  . . . . . . . . . . . . . . .	Number	 002Eh	 
$BifX2C  . . . . . . . . . . . . . . .	Number	 002Fh	 
$BifX2D  . . . . . . . . . . . . . . .	Number	 0030h	 
$BifXRANGE . . . . . . . . . . . . . .	Number	 0027h	 
$Bin . . . . . . . . . . . . . . . . .	Number	 0024h	 
$CALL  . . . . . . . . . . . . . . . .	Number	 0094h	 
$CONST_SYMBOL  . . . . . . . . . . . .	Number	 0040h	 
$CaseTarget  . . . . . . . . . . . . .	Number	 0006h	 
$Cat . . . . . . . . . . . . . . . . .	Number	 004Dh	 
$Colon . . . . . . . . . . . . . . . .	Number	 000Ah	 
$Comma . . . . . . . . . . . . . . . .	Number	 001Ch	 
$Constant  . . . . . . . . . . . . . .	Number	 008Ah	 
$Cr  . . . . . . . . . . . . . . . . .	Text   	 0dh
$DIGITS  . . . . . . . . . . . . . . .	Number	 00E4h	 
$DO  . . . . . . . . . . . . . . . . .	Number	 0098h	 
$DROP  . . . . . . . . . . . . . . . .	Number	 00B8h	 
$Desc59H . . . . . . . . . . . . . . .	Number	 000Bh	 
$DescArgs  . . . . . . . . . . . . . .	Number	 000Ah	 
$DescFiles . . . . . . . . . . . . . .	Number	 000Ch	 
$DescQueue . . . . . . . . . . . . . .	Number	 000Dh	 
$DescString  . . . . . . . . . . . . .	Number	 0005h	 
$Descriptions  . . . . . . . . . . . .	Number	 0037h	 
$Digit . . . . . . . . . . . . . . . .	Number	 0040h	 
$DosAllocate . . . . . . . . . . . . .	Number	 0048h	 
$DosChmod  . . . . . . . . . . . . . .	Number	 0043h	 
$DosClose  . . . . . . . . . . . . . .	Number	 003Eh	 
$DosCreate . . . . . . . . . . . . . .	Number	 003Ch	 
$DosDate . . . . . . . . . . . . . . .	Number	 002Ah	 
$DosDelete . . . . . . . . . . . . . .	Number	 0041h	 
$DosDisk . . . . . . . . . . . . . . .	Number	 0019h	 
$DosExecute  . . . . . . . . . . . . .	Number	 004Bh	 
$DosExit . . . . . . . . . . . . . . .	Number	 004Ch	 
$DosFree . . . . . . . . . . . . . . .	Number	 0049h	 
$DosGetError . . . . . . . . . . . . .	Number	 0059h	 
$DosModifyAllocated  . . . . . . . . .	Number	 004Ah	 
$DosOpen . . . . . . . . . . . . . . .	Number	 003Dh	 
$DosPSP  . . . . . . . . . . . . . . .	Number	 0062h	 
$DosPath . . . . . . . . . . . . . . .	Number	 0047h	 
$DosRead . . . . . . . . . . . . . . .	Number	 003Fh	 
$DosReturnCode . . . . . . . . . . . .	Number	 004Dh	 
$DosSeek . . . . . . . . . . . . . . .	Number	 0042h	 
$DosTime . . . . . . . . . . . . . . .	Number	 002Ch	 
$DosWrite  . . . . . . . . . . . . . .	Number	 0040h	 
$Dropped . . . . . . . . . . . . . . .	Number	 0040h	 
$ELSE  . . . . . . . . . . . . . . . .	Number	 009Ch	 
$END . . . . . . . . . . . . . . . . .	Number	 005Ch	 
$ENGINEERING . . . . . . . . . . . . .	Number	 00ECh	 
$ERROR . . . . . . . . . . . . . . . .	Number	 00CCh	 
$EXIT  . . . . . . . . . . . . . . . .	Number	 00A8h	 
$EXPOSE  . . . . . . . . . . . . . . .	Number	 00BCh	 
$Ee  . . . . . . . . . . . . . . . . .	Number	 0001h	 
$EndBuffer . . . . . . . . . . . . . .	Number	 000Ah	 
$Eof . . . . . . . . . . . . . . . . .	Text   	 1ah
$Eos . . . . . . . . . . . . . . . . .	Number	 0000h	 
$Eq  . . . . . . . . . . . . . . . . .	Number	 002Bh	 
$Exposed . . . . . . . . . . . . . . .	Number	 0050h	 
$FAILURE . . . . . . . . . . . . . . .	Number	 00C9h	 
$FOREVER . . . . . . . . . . . . . . .	Number	 0118h	 
$FORM  . . . . . . . . . . . . . . . .	Number	 00E8h	 
$FOR . . . . . . . . . . . . . . . . .	Number	 0064h	 
$FUZZ  . . . . . . . . . . . . . . . .	Number	 00E5h	 
$FileBufferSize  . . . . . . . . . . .	Number	 0400h	 
$Ge  . . . . . . . . . . . . . . . . .	Number	 002Fh	 
$Group . . . . . . . . . . . . . . . .	Number	 00FCh	 
$Gt  . . . . . . . . . . . . . . . . .	Number	 0030h	 
$HALT  . . . . . . . . . . . . . . . .	Number	 00CAh	 
$Hex . . . . . . . . . . . . . . . . .	Number	 001Ch	 
$IF  . . . . . . . . . . . . . . . . .	Number	 00D4h	 
$INPUT . . . . . . . . . . . . . . . .	Number	 00D8h	 
$INTERPRET . . . . . . . . . . . . . .	Number	 00A4h	 
$ITERATE . . . . . . . . . . . . . . .	Number	 00B5h	 
$InitStackSize . . . . . . . . . . . .	Number	 2000h	 
$Invalid . . . . . . . . . . . . . . .	Number	 0009h	 
$LEAVE . . . . . . . . . . . . . . . .	Number	 00B4h	 
$LINEIN  . . . . . . . . . . . . . . .	Number	 007Ch	 
$LOSTDIGITS  . . . . . . . . . . . . .	Number	 00C5h	 
$Label . . . . . . . . . . . . . . . .	Number	 008Bh	 
$Leeway  . . . . . . . . . . . . . . .	Number	 0003h	 
$Letter  . . . . . . . . . . . . . . .	Number	 0080h	 
$Le  . . . . . . . . . . . . . . . . .	Number	 002Eh	 
$Lf  . . . . . . . . . . . . . . . . .	Text   	 0ah
$Limit_Digits  . . . . . . . . . . . .	Number	 270Fh	 
$Limit_EnvironmentName . . . . . . . .	Number	 000Ah	 
$Limit_ExponentDigits  . . . . . . . .	Number	 0009h	 
$Limit_Insert  . . . . . . . . . . . .	Number	 0032h	 
$Limit_Literal . . . . . . . . . . . .	Number	 00FAh	 
$Limit_Major . . . . . . . . . . . . .	Number	 0036h	 
$Limit_Name  . . . . . . . . . . . . .	Number	 00FAh	 
$Limit_String  . . . . . . . . . . . .	Number	 C350h	 
$LineFeed  . . . . . . . . . . . . . .	Number	 0027h	 
$Lowercase . . . . . . . . . . . . . .	Number	 0048h	 
$Lparen  . . . . . . . . . . . . . . .	Number	 000Ch	 
$Lt  . . . . . . . . . . . . . . . . .	Number	 002Dh	 
$M090  . . . . . . . . . . . . . . . .	Number	 0010h	 
$MaxParms  . . . . . . . . . . . . . .	Number	 0064h	 
$MaxPreInsert  . . . . . . . . . . . .	Number	 00AFh	 
$Minus . . . . . . . . . . . . . . . .	Number	 0024h	 
$MsgChunk  . . . . . . . . . . . . . .	Number	 0050h	 
$MsgNum  . . . . . . . . . . . . . . .	Number	 0044h	 
$MsgRoom . . . . . . . . . . . . . . .	Number	 00C8h	 
$NAME  . . . . . . . . . . . . . . . .	Number	 00DCh	 
$NOP . . . . . . . . . . . . . . . . .	Number	 00A0h	 
$NORMAL  . . . . . . . . . . . . . . .	Number	 0114h	 
$NOTREADY  . . . . . . . . . . . . . .	Number	 00C8h	 
$NOVALUE . . . . . . . . . . . . . . .	Number	 00C6h	 
$NUMBER  . . . . . . . . . . . . . . .	Number	 0044h	 
$NUMERIC . . . . . . . . . . . . . . .	Number	 00E0h	 
$Ne  . . . . . . . . . . . . . . . . .	Number	 002Ch	 
$NoMatch . . . . . . . . . . . . . . .	Number	 00FFh	 
$NonUpable . . . . . . . . . . . . . .	Number	 0008h	 
$Not . . . . . . . . . . . . . . . . .	Number	 0020h	 
$NullString  . . . . . . . . . . . . .	Number	 0080h	 
$Num . . . . . . . . . . . . . . . . .	Number	 000Ch	 
$OFF . . . . . . . . . . . . . . . . .	Number	 011Ch	 
$OKb . . . . . . . . . . . . . . . . .	Number	 0020h	 
$OKx . . . . . . . . . . . . . . . . .	Number	 0010h	 
$ON  . . . . . . . . . . . . . . . . .	Number	 0120h	 
$OPTIONS . . . . . . . . . . . . . . .	Number	 00A5h	 
$OTHERWISE . . . . . . . . . . . . . .	Number	 00F0h	 
$OUTPUT  . . . . . . . . . . . . . . .	Number	 00F4h	 
$Omitted . . . . . . . . . . . . . . .	Number	 0088h	 
$Or  . . . . . . . . . . . . . . . . .	Number	 0015h	 
$PARSE . . . . . . . . . . . . . . . .	Number	 00F8h	 
$PROCEDURE . . . . . . . . . . . . . .	Number	 00FCh	 
$PULL  . . . . . . . . . . . . . . . .	Number	 0080h	 
$PUSH  . . . . . . . . . . . . . . . .	Number	 00A9h	 
$Pad . . . . . . . . . . . . . . . . .	Number	 0018h	 
$PcodesBase  . . . . . . . . . . . . .	Number	 0001h	 
$PcodesCeil  . . . . . . . . . . . . .	Number	 00C5h	 
$Percent . . . . . . . . . . . . . . .	Number	 0010h	 
$PjumpBase . . . . . . . . . . . . . .	Number	 0057h	 
$PjumpCeil . . . . . . . . . . . . . .	Number	 0089h	 
$PlusMinus . . . . . . . . . . . . . .	Text   	 $AttribPlus and $Group
$Plus  . . . . . . . . . . . . . . . .	Number	 0025h	 
$Power . . . . . . . . . . . . . . . .	Number	 0050h	 
$QUEUE . . . . . . . . . . . . . . . .	Number	 00AAh	 
$REPLACE . . . . . . . . . . . . . . .	Number	 0108h	 
$RETURN  . . . . . . . . . . . . . . .	Number	 00ABh	 
$Rem . . . . . . . . . . . . . . . . .	Number	 0013h	 
$Rparen  . . . . . . . . . . . . . . .	Number	 0038h	 
$SAY . . . . . . . . . . . . . . . . .	Number	 00ACh	 
$SCIENTIFIC  . . . . . . . . . . . . .	Number	 00EDh	 
$SELECT  . . . . . . . . . . . . . . .	Number	 0100h	 
$SIGNAL  . . . . . . . . . . . . . . .	Number	 00C0h	 
$SOURCE  . . . . . . . . . . . . . . .	Number	 007Dh	 
$STEM  . . . . . . . . . . . . . . . .	Number	 010Ch	 
$STREAM  . . . . . . . . . . . . . . .	Number	 0110h	 
$STRING  . . . . . . . . . . . . . . .	Number	 003Ch	 
$SYNTAX  . . . . . . . . . . . . . . .	Number	 00C4h	 
$Semi  . . . . . . . . . . . . . . . .	Number	 0004h	 
$Seq . . . . . . . . . . . . . . . . .	Number	 0031h	 
$SerialCompaction  . . . . . . . . . .	Number	 0002h	 
$SerialInterpret . . . . . . . . . . .	Number	 0003h	 
$SerialNone  . . . . . . . . . . . . .	Number	 0000h	 
$SerialQue . . . . . . . . . . . . . .	Number	 0001h	 
$SerialSource  . . . . . . . . . . . .	Number	 0004h	 
$Sge . . . . . . . . . . . . . . . . .	Number	 0035h	 
$Sgt . . . . . . . . . . . . . . . . .	Number	 0036h	 
$ShiftV  . . . . . . . . . . . . . . .	Number	 0003h	 
$Sigl  . . . . . . . . . . . . . . . .	Number	 0048h	 
$SizeConstsHeader  . . . . . . . . . .	Number	 0014h	 
$Slash . . . . . . . . . . . . . . . .	Number	 0012h	 
$Sle . . . . . . . . . . . . . . . . .	Number	 0034h	 
$Slt . . . . . . . . . . . . . . . . .	Number	 0033h	 
$Sne . . . . . . . . . . . . . . . . .	Number	 0032h	 
$SourceBufferSize  . . . . . . . . . .	Number	 11C8h	 
$Special . . . . . . . . . . . . . . .	Number	 00C0h	 
$Stem  . . . . . . . . . . . . . . . .	Number	 0060h	 
$Stream  . . . . . . . . . . . . . . .	Number	 0020h	 
$StrideA . . . . . . . . . . . . . . .	Number	 0006h	 
$StrideD . . . . . . . . . . . . . . .	Number	 0028h	 
$StrideF . . . . . . . . . . . . . . .	Number	 001Ah	 
$StrideH . . . . . . . . . . . . . . .	Number	 0010h	 
$StrideJ . . . . . . . . . . . . . . .	Number	 000Eh	 
$StrideL . . . . . . . . . . . . . . .	Number	 007Ch	 
$StrideS . . . . . . . . . . . . . . .	Number	 0010h	 
$StrideV . . . . . . . . . . . . . . .	Number	 0008h	 
$Symbol  . . . . . . . . . . . . . . .	Number	 0028h	 
$SysCount  . . . . . . . . . . . . . .	Number	 000Bh	 
$THEN  . . . . . . . . . . . . . . . .	Number	 0060h	 
$TO  . . . . . . . . . . . . . . . . .	Number	 0068h	 
$TRACE . . . . . . . . . . . . . . . .	Number	 00B0h	 
$Test  . . . . . . . . . . . . . . . .	Number	 00C0h	 
$TrEv  . . . . . . . . . . . . . . . .	Number	 0269h	 
$TraceAssign . . . . . . . . . . . . .	Number	 0000h	 
$TraceA  . . . . . . . . . . . . . . .	Number	 0002h	 
$TraceBY . . . . . . . . . . . . . . .	Number	 0002h	 
$TraceBack . . . . . . . . . . . . . .	Number	 001Ah	 
$TraceB  . . . . . . . . . . . . . . .	Number	 0001h	 
$TraceClause . . . . . . . . . . . . .	Number	 0004h	 
$TraceCompound . . . . . . . . . . . .	Number	 0006h	 
$TraceC  . . . . . . . . . . . . . . .	Number	 0004h	 
$TraceDot  . . . . . . . . . . . . . .	Number	 0008h	 
$TraceEndClause  . . . . . . . . . . .	Number	 001Eh	 
$TraceError  . . . . . . . . . . . . .	Number	 000Ah	 
$TraceExpr . . . . . . . . . . . . . .	Number	 000Ch	 
$TraceE  . . . . . . . . . . . . . . .	Number	 0008h	 
$TraceFailure  . . . . . . . . . . . .	Number	 000Eh	 
$TraceFunction . . . . . . . . . . . .	Number	 0010h	 
$TraceF  . . . . . . . . . . . . . . .	Number	 0010h	 
$TraceI  . . . . . . . . . . . . . . .	Number	 0020h	 
$TraceLetter . . . . . . . . . . . . .	Byte	 0257	  _TEXT	
$TraceLit  . . . . . . . . . . . . . .	Number	 0016h	 
$TraceL  . . . . . . . . . . . . . . .	Number	 0040h	 
$TraceOperator . . . . . . . . . . . .	Number	 0012h	 
$TraceO  . . . . . . . . . . . . . . .	Number	 0000h	 
$TraceParse  . . . . . . . . . . . . .	Number	 001Ch	 
$TracePrefix . . . . . . . . . . . . .	Number	 0014h	 
$TraceR  . . . . . . . . . . . . . . .	Number	 0080h	 
$TraceVar  . . . . . . . . . . . . . .	Number	 0018h	 
$UNTIL . . . . . . . . . . . . . . . .	Number	 0070h	 
$UPPER . . . . . . . . . . . . . . . .	Number	 00D0h	 
$UnAccept  . . . . . . . . . . . . . .	Number	 0008h	 
$VALUE . . . . . . . . . . . . . . . .	Number	 0058h	 
$VAR_SYMBOL  . . . . . . . . . . . . .	Number	 0048h	 
$VAR . . . . . . . . . . . . . . . . .	Number	 0084h	 
$VERSION . . . . . . . . . . . . . . .	Number	 007Eh	 
$Variable  . . . . . . . . . . . . . .	Number	 0089h	 
$WHEN  . . . . . . . . . . . . . . . .	Number	 0104h	 
$WHILE . . . . . . . . . . . . . . . .	Number	 0074h	 
$WITH  . . . . . . . . . . . . . . . .	Number	 0078h	 
$White . . . . . . . . . . . . . . . .	Number	 0000h	 
$WholeGE . . . . . . . . . . . . . . .	Number	 0004h	 
$WholeGT . . . . . . . . . . . . . . .	Number	 0008h	 
$WholeNum  . . . . . . . . . . . . . .	Number	 0014h	 
$Whole . . . . . . . . . . . . . . . .	Number	 0000h	 
$Xor . . . . . . . . . . . . . . . . .	Number	 0014h	 
$Xx  . . . . . . . . . . . . . . . . .	Number	 0002h	 
$mParseEnd . . . . . . . . . . . . . .	Number	 001Ah	 
$mParseEscape  . . . . . . . . . . . .	Number	 0012h	 
$mPattern  . . . . . . . . . . . . . .	Number	 002Ah	 
$mPosEq  . . . . . . . . . . . . . . .	Number	 0032h	 
$mPosMinus . . . . . . . . . . . . . .	Number	 0042h	 
$mPosPlus  . . . . . . . . . . . . . .	Number	 003Ah	 
$mPosRest  . . . . . . . . . . . . . .	Number	 0022h	 
$mRepTail  . . . . . . . . . . . . . .	Number	 0002h	 
$mTemplateComma  . . . . . . . . . . .	Number	 004Ah	 
$mUpper  . . . . . . . . . . . . . . .	Number	 000Ah	 
$n17p1 . . . . . . . . . . . . . . . .	Number	 0002h	 
$n40p3 . . . . . . . . . . . . . . . .	Number	 0004h	 
$n40p4 . . . . . . . . . . . . . . . .	Number	 0006h	 
$n40p5 . . . . . . . . . . . . . . . .	Number	 0008h	 
$n7p3  . . . . . . . . . . . . . . . .	Number	 0000h	 
$nArg  . . . . . . . . . . . . . . . .	Number	 0004h	 
$nDigits . . . . . . . . . . . . . . .	Number	 0000h	 
$nForm . . . . . . . . . . . . . . . .	Number	 0004h	 
$nFuzz . . . . . . . . . . . . . . . .	Number	 0002h	 
$nLineIn . . . . . . . . . . . . . . .	Number	 0006h	 
$nNormal . . . . . . . . . . . . . . .	Number	 0040h	 
$nPull . . . . . . . . . . . . . . . .	Number	 0008h	 
$nSource . . . . . . . . . . . . . . .	Number	 000Ah	 
$nStem . . . . . . . . . . . . . . . .	Number	 0000h	 
$nStream . . . . . . . . . . . . . . .	Number	 0020h	 
$nVar  . . . . . . . . . . . . . . . .	Number	 0000h	 
$nVersion  . . . . . . . . . . . . . .	Number	 000Ch	 
$nWith . . . . . . . . . . . . . . . .	Number	 0002h	 
$pAbut . . . . . . . . . . . . . . . .	Number	 0001h	 
$pAddress  . . . . . . . . . . . . . .	Number	 00A5h	 
$pAdd  . . . . . . . . . . . . . . . .	Number	 003Fh	 
$pAnd  . . . . . . . . . . . . . . . .	Number	 0035h	 
$pAssignConst  . . . . . . . . . . . .	Number	 0099h	 
$pAssignDotsP  . . . . . . . . . . . .	Number	 0007h	 
$pAssignDots . . . . . . . . . . . . .	Number	 0097h	 
$pAssignStem . . . . . . . . . . . . .	Number	 0095h	 
$pAssign . . . . . . . . . . . . . . .	Number	 0093h	 
$pBifGroup . . . . . . . . . . . . . .	Number	 00ADh	 
$pBifq . . . . . . . . . . . . . . . .	Number	 002Bh	 
$pBif  . . . . . . . . . . . . . . . .	Number	 00ABh	 
$pBool . . . . . . . . . . . . . . . .	Number	 00A1h	 
$pBy . . . . . . . . . . . . . . . . .	Number	 0011h	 
$pCallOn . . . . . . . . . . . . . . .	Number	 008Fh	 
$pCall . . . . . . . . . . . . . . . .	Number	 0055h	 
$pCat  . . . . . . . . . . . . . . . .	Number	 0003h	 
$pCeq  . . . . . . . . . . . . . . . .	Number	 007Dh	 
$pCge  . . . . . . . . . . . . . . . .	Number	 0085h	 
$pCgt  . . . . . . . . . . . . . . . .	Number	 0087h	 
$pCle  . . . . . . . . . . . . . . . .	Number	 0083h	 
$pClt  . . . . . . . . . . . . . . . .	Number	 0081h	 
$pCne  . . . . . . . . . . . . . . . .	Number	 007Fh	 
$pCommandEnv . . . . . . . . . . . . .	Number	 00A7h	 
$pCommand  . . . . . . . . . . . . . .	Number	 004Dh	 
$pControlVar . . . . . . . . . . . . .	Number	 005Bh	 
$pDivide . . . . . . . . . . . . . . .	Number	 0045h	 
$pDotControlVar  . . . . . . . . . . .	Number	 005Dh	 
$pDots . . . . . . . . . . . . . . . .	Number	 0091h	 
$pDropList . . . . . . . . . . . . . .	Number	 00B7h	 
$pDrop . . . . . . . . . . . . . . . .	Number	 009Dh	 
$pEnvName  . . . . . . . . . . . . . .	Number	 00A9h	 
$pEq . . . . . . . . . . . . . . . . .	Number	 0065h	 
$pExit . . . . . . . . . . . . . . . .	Number	 0027h	 
$pExposeList . . . . . . . . . . . . .	Number	 00B9h	 
$pExpose . . . . . . . . . . . . . . .	Number	 009Fh	 
$pFor  . . . . . . . . . . . . . . . .	Number	 0013h	 
$pGe . . . . . . . . . . . . . . . . .	Number	 006Dh	 
$pGt . . . . . . . . . . . . . . . . .	Number	 006Fh	 
$pIntDivide  . . . . . . . . . . . . .	Number	 0047h	 
$pInterpEnd  . . . . . . . . . . . . .	Number	 0089h	 
$pInterpret  . . . . . . . . . . . . .	Number	 004Fh	 
$pInvoke . . . . . . . . . . . . . . .	Number	 0053h	 
$pIterCV . . . . . . . . . . . . . . .	Number	 00A3h	 
$pIterRep  . . . . . . . . . . . . . .	Number	 0019h	 
$pIterate  . . . . . . . . . . . . . .	Number	 001Bh	 
$pJump . . . . . . . . . . . . . . . .	Number	 0063h	 
$pLeave  . . . . . . . . . . . . . . .	Number	 001Dh	 
$pLength . . . . . . . . . . . . . . .	Number	 002Dh	 
$pLe . . . . . . . . . . . . . . . . .	Number	 006Bh	 
$pLt . . . . . . . . . . . . . . . . .	Number	 0069h	 
$pMax  . . . . . . . . . . . . . . . .	Number	 002Fh	 
$pMin  . . . . . . . . . . . . . . . .	Number	 0031h	 
$pMultiply . . . . . . . . . . . . . .	Number	 0043h	 
$pNegate . . . . . . . . . . . . . . .	Number	 003Dh	 
$pNe . . . . . . . . . . . . . . . . .	Number	 0067h	 
$pNop  . . . . . . . . . . . . . . . .	Number	 0005h	 
$pNot  . . . . . . . . . . . . . . . .	Number	 0033h	 
$pNumber . . . . . . . . . . . . . . .	Number	 000Dh	 
$pNumeric  . . . . . . . . . . . . . .	Number	 0051h	 
$pOptions  . . . . . . . . . . . . . .	Number	 00C3h	 
$pOr . . . . . . . . . . . . . . . . .	Number	 0037h	 
$pParse  . . . . . . . . . . . . . . .	Number	 0009h	 
$pPositive . . . . . . . . . . . . . .	Number	 003Bh	 
$pPower  . . . . . . . . . . . . . . .	Number	 004Bh	 
$pPush . . . . . . . . . . . . . . . .	Number	 00BBh	 
$pQueue  . . . . . . . . . . . . . . .	Number	 00BDh	 
$pRaise  . . . . . . . . . . . . . . .	Number	 00AFh	 
$pRemainder  . . . . . . . . . . . . .	Number	 0049h	 
$pRepEver  . . . . . . . . . . . . . .	Number	 0059h	 
$pRep  . . . . . . . . . . . . . . . .	Number	 0057h	 
$pResult . . . . . . . . . . . . . . .	Number	 0021h	 
$pResumeParse  . . . . . . . . . . . .	Number	 000Bh	 
$pReturns  . . . . . . . . . . . . . .	Number	 0025h	 
$pReturn . . . . . . . . . . . . . . .	Number	 0023h	 
$pSay  . . . . . . . . . . . . . . . .	Number	 0029h	 
$pSeq  . . . . . . . . . . . . . . . .	Number	 0071h	 
$pSge  . . . . . . . . . . . . . . . .	Number	 0079h	 
$pSgt  . . . . . . . . . . . . . . . .	Number	 007Bh	 
$pSignalOff  . . . . . . . . . . . . .	Number	 00B1h	 
$pSignalOn . . . . . . . . . . . . . .	Number	 008Dh	 
$pSignalV  . . . . . . . . . . . . . .	Number	 00B3h	 
$pSignal . . . . . . . . . . . . . . .	Number	 008Bh	 
$pSle  . . . . . . . . . . . . . . . .	Number	 0077h	 
$pSlt  . . . . . . . . . . . . . . . .	Number	 0075h	 
$pSne  . . . . . . . . . . . . . . . .	Number	 0073h	 
$pSubtract . . . . . . . . . . . . . .	Number	 0041h	 
$pSysVar . . . . . . . . . . . . . . .	Number	 00B5h	 
$pThen . . . . . . . . . . . . . . . .	Number	 005Fh	 
$pTo . . . . . . . . . . . . . . . . .	Number	 000Fh	 
$pTraceEvent . . . . . . . . . . . . .	Number	 00C1h	 
$pTrace  . . . . . . . . . . . . . . .	Number	 00BFh	 
$pUnDo . . . . . . . . . . . . . . . .	Number	 001Fh	 
$pUnstore  . . . . . . . . . . . . . .	Number	 009Bh	 
$pUntil  . . . . . . . . . . . . . . .	Number	 0017h	 
$pWhen . . . . . . . . . . . . . . . .	Number	 0061h	 
$pWhile  . . . . . . . . . . . . . . .	Number	 0015h	 
$pXor  . . . . . . . . . . . . . . . .	Number	 0039h	 
$ret . . . . . . . . . . . . . . . . .	Number	 00C3h	 
$sAddress  . . . . . . . . . . . . . .	Number	 002Dh	 
$sDigits . . . . . . . . . . . . . . .	Number	 0027h	 
$sDropList . . . . . . . . . . . . . .	Number	 000Bh	 
$sDrop . . . . . . . . . . . . . . . .	Number	 0006h	 
$sEq . . . . . . . . . . . . . . . . .	Number	 001Bh	 
$sExit . . . . . . . . . . . . . . . .	Number	 0032h	 
$sForm . . . . . . . . . . . . . . . .	Number	 002Bh	 
$sIterate  . . . . . . . . . . . . . .	Number	 003Fh	 
$sLeave  . . . . . . . . . . . . . . .	Number	 003Eh	 
$sLength . . . . . . . . . . . . . . .	Number	 0017h	 
$sMinus  . . . . . . . . . . . . . . .	Number	 0014h	 
$sNegate . . . . . . . . . . . . . . .	Number	 0030h	 
$sNop  . . . . . . . . . . . . . . . .	Number	 002Ah	 
$sNumber . . . . . . . . . . . . . . .	Number	 0037h	 
$sPercent  . . . . . . . . . . . . . .	Number	 0000h	 
$sPositive . . . . . . . . . . . . . .	Number	 0031h	 
$sRaise  . . . . . . . . . . . . . . .	Number	 0039h	 
$sReturns  . . . . . . . . . . . . . .	Number	 0035h	 
$sSeq  . . . . . . . . . . . . . . . .	Number	 0021h	 
$sStem . . . . . . . . . . . . . . . .	Number	 0009h	 
$sWith . . . . . . . . . . . . . . . .	Number	 000Ah	 
$tBinary . . . . . . . . . . . . . . .	Number	 00FDh	 
$tChar . . . . . . . . . . . . . . . .	Number	 00FFh	 
$tLabel  . . . . . . . . . . . . . . .	Number	 00FEh	 
??0000 . . . . . . . . . . . . . . . .	Number	 0008h	 
??0001 . . . . . . . . . . . . . . . .	Number	 8000h	 
??0002 . . . . . . . . . . . . . . . .	Number	 0040h	 
??0003 . . . . . . . . . . . . . . . .	Number	 0040h	 
??0004 . . . . . . . . . . . . . . . .	Number	 0040h	 
??0005 . . . . . . . . . . . . . . . .	Number	 0008h	 
??0006 . . . . . . . . . . . . . . . .	Number	 0008h	 
?BIF . . . . . . . . . . . . . . . . .	Number	 0002h	 
?CLAUSELOCAL . . . . . . . . . . . . .	Number	 000Eh	 
?CLAUSETIME  . . . . . . . . . . . . .	Number	 000Ch	 
?LINEIN_POSITION . . . . . . . . . . .	Number	 000Ah	 
?MONTHS  . . . . . . . . . . . . . . .	Number	 0010h	 
?OUTCOME . . . . . . . . . . . . . . .	Number	 0000h	 
?RESPONSE  . . . . . . . . . . . . . .	Number	 0008h	 
?STARTTIME . . . . . . . . . . . . . .	Number	 0014h	 
?STREAMSTATE . . . . . . . . . . . . .	Number	 0006h	 
?STREAM  . . . . . . . . . . . . . . .	Number	 0004h	 
?WEEKDAYS  . . . . . . . . . . . . . .	Number	 0012h	 
@CodeSize  . . . . . . . . . . . . . .	Number	 0000h	 
@DataSize  . . . . . . . . . . . . . .	Number	 0000h	 
@Interface . . . . . . . . . . . . . .	Number	 0000h	 
@Model . . . . . . . . . . . . . . . .	Number	 0002h	 
@code  . . . . . . . . . . . . . . . .	Text   	 _TEXT
@data  . . . . . . . . . . . . . . . .	Text   	 DGROUP
@fardata?  . . . . . . . . . . . . . .	Text   	 FAR_BSS
@fardata . . . . . . . . . . . . . . .	Text   	 FAR_DATA
@stack . . . . . . . . . . . . . . . .	Text   	 DGROUP
ARITHOP$$  . . . . . . . . . . . . . .	L Near	 0000	  _TEXT	External
AfterCheck . . . . . . . . . . . . . .	L Near	 0000	  _TEXT	External
AllocateCx_EsAx  . . . . . . . . . . .	L Near	 0000	  _TEXT	External
ArrayBx  . . . . . . . . . . . . . . .	Text   	 bx
ArraySi  . . . . . . . . . . . . . . .	Text   	 si
Assert . . . . . . . . . . . . . . . .	Text   	 .erre
AssignExposed  . . . . . . . . . . . .	L Near	 0000	  _TEXT	External
AssureSiPlus . . . . . . . . . . . . .	L Near	 0000	  _TEXT	External
AttribAl . . . . . . . . . . . . . . .	Text   	 al
Attributes . . . . . . . . . . . . . .	L Near	 0000	  _TEXT	External
AwayEsAxCx . . . . . . . . . . . . . .	L Near	 0000	  _TEXT	External
Away . . . . . . . . . . . . . . . . .	L Near	 0000	  _TEXT	External
Ax2DsSiCx  . . . . . . . . . . . . . .	L Near	 040B	  _TEXT	Public
Ax2  . . . . . . . . . . . . . . . . .	L Near	 041B	  _TEXT	
A  . . . . . . . . . . . . . . . . . .	Text   	 (Ashape ptr[bp+si])
Bassign  . . . . . . . . . . . . . . .	L Near	 0000	  _TEXT	External
BifBound . . . . . . . . . . . . . . .	L Near	 0000	  _TEXT	External
BooleryRejumps . . . . . . . . . . . .	Number	 0000h	 External
Boolery  . . . . . . . . . . . . . . .	L Near	 0000	  _TEXT	External
Bptr . . . . . . . . . . . . . . . . .	Text   	 byte ptr
Bswitch  . . . . . . . . . . . . . . .	L Near	 0000	  _TEXT	External
C4Has  . . . . . . . . . . . . . . . .	L Near	 050D	  _TEXT	
CD . . . . . . . . . . . . . . . . . .	Number	 0000h	 
CONFIG_ARITH . . . . . . . . . . . . .	Number	 00FFh	 
CONFIG_B2C . . . . . . . . . . . . . .	Number	 00E9h	 
CONFIG_C2B . . . . . . . . . . . . . .	Number	 00E7h	 
CONFIG_MSG . . . . . . . . . . . . . .	Number	 00E5h	 
CONFIG_RAISE40$$ . . . . . . . . . . .	L Near	 0000	  _TEXT	External
CONFIG_RAISE40 . . . . . . . . . . . .	Number	 00E1h	 
CONFIG_RAISE . . . . . . . . . . . . .	Number	 00DFh	 
CONFIG_STREAM_CHARIN . . . . . . . . .	Number	 00EDh	 
CONFIG_STREAM_CHAROUT  . . . . . . . .	Number	 00F3h	 
CONFIG_STREAM_CLOSE  . . . . . . . . .	Number	 00F1h	 
CONFIG_STREAM_COMMAND  . . . . . . . .	Number	 00F9h	 
CONFIG_STREAM_COUNT  . . . . . . . . .	Number	 00F5h	 
CONFIG_STREAM_POSITION . . . . . . . .	Number	 00EBh	 
CONFIG_STREAM_QUALIFIED  . . . . . . .	Number	 00F7h	 
CONFIG_STREAM_QUERY  . . . . . . . . .	Number	 00EFh	 
CONFIG_STREAM_STATE  . . . . . . . . .	Number	 00FBh	 
CONFIG_TIME  . . . . . . . . . . . . .	Number	 00FDh	 
CONFIG_UPPER$$ . . . . . . . . . . . .	L Near	 0000	  _TEXT	External
CONFIG_UPPER . . . . . . . . . . . . .	Number	 00E3h	 
ClauseRunEnd . . . . . . . . . . . . .	L Near	 013B	  _TEXT	
ClauseSourceEnd  . . . . . . . . . . .	L Near	 03DF	  _TEXT	Public
Command  . . . . . . . . . . . . . . .	L Near	 0000	  _TEXT	External
Compiler . . . . . . . . . . . . . . .	L Near	 00A2	  _TEXT	Public
Compiling  . . . . . . . . . . . . . .	L Near	 0000	  _TEXT	External
ConsistL . . . . . . . . . . . . . . .	L Near	 04E0	  _TEXT	
ConsistRet . . . . . . . . . . . . . .	L Near	 04E8	  _TEXT	
Consist  . . . . . . . . . . . . . . .	L Near	 0445	  _TEXT	Public
ConstValueX  . . . . . . . . . . . . .	L Near	 0000	  _TEXT	External
ConstValue . . . . . . . . . . . . . .	L Near	 0000	  _TEXT	External
Create4Dump  . . . . . . . . . . . . .	L Near	 04F1	  _TEXT	
CursorBx . . . . . . . . . . . . . . .	Text   	 bx
CursorSi . . . . . . . . . . . . . . .	Text   	 si
D1 . . . . . . . . . . . . . . . . . .	Text   	 (Dshape ptr[bp+di-$StrideD])
DLcon  . . . . . . . . . . . . . . . .	L Near	 04B0	  _TEXT	
Debug  . . . . . . . . . . . . . . . .	Number	 0000h	 
DepthBl  . . . . . . . . . . . . . . .	Text   	 bl
DepthBx  . . . . . . . . . . . . . . .	Text   	 bx
DigitsChange . . . . . . . . . . . . .	L Near	 0000	  _TEXT	External
DotsExposed  . . . . . . . . . . . . .	L Near	 0000	  _TEXT	External
DotsFsBxDsSiX  . . . . . . . . . . . .	L Near	 0000	  _TEXT	External
DotsFsBxDsSi . . . . . . . . . . . . .	L Near	 0000	  _TEXT	External
Dptr . . . . . . . . . . . . . . . . .	Text   	 dword ptr
DualSwitch . . . . . . . . . . . . . .	L Near	 014B	  _TEXT	Public
DumpL  . . . . . . . . . . . . . . . .	L Near	 0454	  _TEXT	
Dumper . . . . . . . . . . . . . . . .	L Near	 0518	  _TEXT	
Dump . . . . . . . . . . . . . . . . .	Byte	 04ED	  _TEXT	
D  . . . . . . . . . . . . . . . . . .	Text   	 (Dshape ptr[bp+di-$StrideD+$StrideV])
Error49Bp  . . . . . . . . . . . . . .	Text   	 call bp
ExecuteDual  . . . . . . . . . . . . .	L Near	 0250	  _TEXT	
ExitDOS  . . . . . . . . . . . . . . .	L Near	 0000	  _TEXT	External
ExposedFs  . . . . . . . . . . . . . .	L Near	 0000	  _TEXT	External
FileBx . . . . . . . . . . . . . . . .	Text   	 bx
ForBcode . . . . . . . . . . . . . . .	Number	 0000h	 
ForBig . . . . . . . . . . . . . . . .	Number	 0000h	 
F  . . . . . . . . . . . . . . . . . .	Text   	 (Fshape ptr[bx-$StrideF])
GiveDosMem . . . . . . . . . . . . . .	L Near	 0000	  _TEXT	External
Hang . . . . . . . . . . . . . . . . .	Text   	 jmp $
Hd . . . . . . . . . . . . . . . . . .	Text   	 (Hshape ptr ds:[0])
HeritageDi . . . . . . . . . . . . . .	L Near	 0000	  _TEXT	External
He . . . . . . . . . . . . . . . . . .	Text   	 (Hshape ptr es:[bp])
Hf . . . . . . . . . . . . . . . . . .	Text   	 (Hshape ptr fs:[bp])
Hg . . . . . . . . . . . . . . . . . .	Text   	 (Hshape ptr gs:[bp])
HighDi . . . . . . . . . . . . . . . .	Text   	 di
H  . . . . . . . . . . . . . . . . . .	Text   	 (Hshape ptr[si])
InitMemory . . . . . . . . . . . . . .	L Near	 0000	  _TEXT	External
InitSegDs  . . . . . . . . . . . . . .	L Near	 0000	  _TEXT	External
Interpret1 . . . . . . . . . . . . . .	L Near	 0000	  _TEXT	External
Jbx  . . . . . . . . . . . . . . . . .	Text   	 (Jshape ptr[bx])
Jdi  . . . . . . . . . . . . . . . . .	Text   	 (Jshape ptr[di])
JumpedOut  . . . . . . . . . . . . . .	L Near	 0138	  _TEXT	
J  . . . . . . . . . . . . . . . . . .	Text   	 (Jshape ptr[si])
KeyListCx  . . . . . . . . . . . . . .	Text   	 cx
KeysBase . . . . . . . . . . . . . . .	Number	 0028h	 
KeywordOffsetCx  . . . . . . . . . . .	Text   	 cx
LINESPLIT  . . . . . . . . . . . . . .	L Near	 0000	  _TEXT	External
Lbx  . . . . . . . . . . . . . . . . .	Text   	 ss:(Lshape ptr[bx-$StrideL+$StrideV])
LengthAtBx . . . . . . . . . . . . . .	Text   	 bx
LevelDi  . . . . . . . . . . . . . . .	Text   	 di
LevelSi  . . . . . . . . . . . . . . .	Text   	 si
LinkBcodeX . . . . . . . . . . . . . .	L Near	 0000	  _TEXT	External
LinkBcode  . . . . . . . . . . . . . .	L Near	 0000	  _TEXT	External
LookFileDsBx . . . . . . . . . . . . .	L Near	 0000	  _TEXT	External
LookupSi . . . . . . . . . . . . . . .	Text   	 si
Lookup . . . . . . . . . . . . . . . .	L Near	 0000	  _TEXT	External
LowPartLenCl . . . . . . . . . . . . .	Text   	 cl
LowSi  . . . . . . . . . . . . . . . .	Text   	 si
Lsi  . . . . . . . . . . . . . . . . .	Text   	 (Lshape ptr[bp+si-$StrideL+$StrideV])
L  . . . . . . . . . . . . . . . . . .	Text   	 (Lshape ptr[bp+di-$StrideL+$StrideV])
MajMinDx . . . . . . . . . . . . . . .	Text   	 dx
MajorDh  . . . . . . . . . . . . . . .	Text   	 dh
MemCheck . . . . . . . . . . . . . . .	Number	 0000h	 
MinorDl  . . . . . . . . . . . . . . .	Text   	 dl
MinorDx  . . . . . . . . . . . . . . .	Text   	 dx
MonNotThen . . . . . . . . . . . . . .	L Near	 01BD	  _TEXT	
Monitor  . . . . . . . . . . . . . . .	L Near	 0125	  _TEXT	
MoreSpaceEs  . . . . . . . . . . . . .	L Near	 0000	  _TEXT	External
Name2File  . . . . . . . . . . . . . .	L Near	 0000	  _TEXT	External
NoNeedSource . . . . . . . . . . . . .	L Near	 01F3	  _TEXT	
NotAssign$ . . . . . . . . . . . . . .	L Near	 02F1	  _TEXT	
NotPresent . . . . . . . . . . . . . .	L Near	 0000	  _TEXT	External
NotRC  . . . . . . . . . . . . . . . .	L Near	 036A	  _TEXT	
NotTop . . . . . . . . . . . . . . . .	L Near	 0343	  _TEXT	
NotTraceA  . . . . . . . . . . . . . .	L Near	 0242	  _TEXT	
Null . . . . . . . . . . . . . . . . .	Number	 00B7h	 
NumDxBx  . . . . . . . . . . . . . . .	L Near	 0000	  _TEXT	External
OnePass  . . . . . . . . . . . . . . .	L Near	 00EB	  _TEXT	
One  . . . . . . . . . . . . . . . . .	Number	 00B5h	 
OpAppendCl . . . . . . . . . . . . . .	Text   	 cl
OpAppendCx . . . . . . . . . . . . . .	Text   	 cx
OpFlags  . . . . . . . . . . . . . . .	L Near	 0000	  _TEXT	External
OperandBl  . . . . . . . . . . . . . .	Text   	 bl
OperandBx  . . . . . . . . . . . . . .	Text   	 bx
Overlay  . . . . . . . . . . . . . . .	Text   	 0 dup(?)
ParaAllocAx  . . . . . . . . . . . . .	L Near	 0000	  _TEXT	External
ParmsCl  . . . . . . . . . . . . . . .	Text   	 cl
ParmsCx  . . . . . . . . . . . . . . .	Text   	 cx
ParseDot . . . . . . . . . . . . . . .	Number	 00FEh	 
ParseDx  . . . . . . . . . . . . . . .	Text   	 dx
ParseSi  . . . . . . . . . . . . . . .	Text   	 si
PartLenCx  . . . . . . . . . . . . . .	Text   	 cx
Pcode1 . . . . . . . . . . . . . . . .	L Near	 0000	  _TEXT	External
Pcode2 . . . . . . . . . . . . . . . .	L Near	 0000	  _TEXT	External
PcodeArg . . . . . . . . . . . . . . .	L Near	 0000	  _TEXT	External
PcodeBif . . . . . . . . . . . . . . .	L Near	 0000	  _TEXT	External
PcodeGapBx . . . . . . . . . . . . . .	L Near	 0000	  _TEXT	External
PcodeOp  . . . . . . . . . . . . . . .	L Near	 0000	  _TEXT	External
PcodesBase$  . . . . . . . . . . . . .	L Near	 0000	  _TEXT	External
ProbeBx  . . . . . . . . . . . . . . .	Text   	 bx
ProgEs . . . . . . . . . . . . . . . .	Text   	 es
RCis . . . . . . . . . . . . . . . . .	Byte	 036E	  _TEXT	
RadixTypeDl  . . . . . . . . . . . . .	Text   	 dl
Raise26p5  . . . . . . . . . . . . . .	L Near	 0000	  _TEXT	External
Raise26p6  . . . . . . . . . . . . . .	L Near	 0000	  _TEXT	External
Raise33p1  . . . . . . . . . . . . . .	L Near	 0000	  _TEXT	External
Raise33p2  . . . . . . . . . . . . . .	L Near	 0000	  _TEXT	External
Raise33p3  . . . . . . . . . . . . . .	L Near	 0000	  _TEXT	External
Raise34p5  . . . . . . . . . . . . . .	L Near	 0000	  _TEXT	External
Raise34p6  . . . . . . . . . . . . . .	L Near	 0000	  _TEXT	External
Raise5p1d  . . . . . . . . . . . . . .	L Near	 0000	  _TEXT	External
Raise5p1 . . . . . . . . . . . . . . .	L Near	 0000	  _TEXT	External
Raise  . . . . . . . . . . . . . . . .	L Near	 0000	  _TEXT	External
RawCharAh  . . . . . . . . . . . . . .	Text   	 ah
RawCharAl  . . . . . . . . . . . . . .	Text   	 al
RawChar  . . . . . . . . . . . . . . .	Text   	 byte ptr ss:[si+bp]
Rejumps  . . . . . . . . . . . . . . .	L Near	 0000	  _TEXT	External
RepassB  . . . . . . . . . . . . . . .	L Near	 00C2	  _TEXT	
ResultSpace  . . . . . . . . . . . . .	L Near	 0000	  _TEXT	External
ResumeP$ . . . . . . . . . . . . . . .	L Near	 0000	  _TEXT	External
RetEsSi  . . . . . . . . . . . . . . .	L Near	 0000	  _TEXT	External
RtypeAh  . . . . . . . . . . . . . . .	Text   	 ah
S1 . . . . . . . . . . . . . . . . . .	Text   	 (Sshape ptr[bp+si+$StrideS])
S2 . . . . . . . . . . . . . . . . . .	Text   	 (Sshape ptr[bp+si+2*$StrideS])
ScanSi . . . . . . . . . . . . . . . .	Text   	 si
ScannerSi  . . . . . . . . . . . . . .	Text   	 si
Scode  . . . . . . . . . . . . . . . .	L Near	 0000	  _TEXT	External
SegOffDi . . . . . . . . . . . . . . .	Text   	 di
Serialize  . . . . . . . . . . . . . .	L Near	 0000	  _TEXT	External
SetInherit . . . . . . . . . . . . . .	L Near	 0000	  _TEXT	External
SetStack . . . . . . . . . . . . . . .	L Near	 0000	  _TEXT	External
SetSymLenJa  . . . . . . . . . . . . .	L Near	 0000	  _TEXT	External
ShowBlank  . . . . . . . . . . . . . .	L Near	 03D2	  _TEXT	
ShowClauseId . . . . . . . . . . . . .	L Near	 0371	  _TEXT	
ShowLine . . . . . . . . . . . . . . .	L Near	 03B2	  _TEXT	
ShowTop  . . . . . . . . . . . . . . .	L Near	 02FA	  _TEXT	
Solid  . . . . . . . . . . . . . . . .	Number	 0001h	 
SortSpaceSS  . . . . . . . . . . . . .	Number	 0001h	 
StackDi  . . . . . . . . . . . . . . .	Text   	 di
StackDx  . . . . . . . . . . . . . . .	Text   	 dx
StackSafe  . . . . . . . . . . . . . .	L Near	 0000	  _TEXT	External
StackSi  . . . . . . . . . . . . . . .	Text   	 si
StartExecutionY  . . . . . . . . . . .	L Near	 0119	  _TEXT	Public
StartExecution . . . . . . . . . . . .	L Near	 0113	  _TEXT	Public
StartupStack . . . . . . . . . . . . .	L Near	 0550	  _TEXT	
Startup  . . . . . . . . . . . . . . .	L Near	 0000	  _TEXT	
StateBx  . . . . . . . . . . . . . . .	Text   	 bx
StateDi  . . . . . . . . . . . . . . .	Text   	 di
StateSi  . . . . . . . . . . . . . . .	Text   	 si
StemBx . . . . . . . . . . . . . . . .	Text   	 bx
StemEs . . . . . . . . . . . . . . . .	Text   	 es
String1  . . . . . . . . . . . . . . .	Number	 00BBh	 
String2  . . . . . . . . . . . . . . .	Number	 00BDh	 
String . . . . . . . . . . . . . . . .	Number	 00B9h	 
SymbolLook . . . . . . . . . . . . . .	L Near	 0000	  _TEXT	External
SymbolsEs  . . . . . . . . . . . . . .	Text   	 es
SymbolsSafe  . . . . . . . . . . . . .	L Near	 0000	  _TEXT	External
SymsZiDx . . . . . . . . . . . . . . .	Text   	 dx
S  . . . . . . . . . . . . . . . . . .	Text   	 (Sshape ptr[bp+si])
TSloop . . . . . . . . . . . . . . . .	L Near	 021E	  _TEXT	
TSnext . . . . . . . . . . . . . . . .	L Near	 0226	  _TEXT	
TailSi . . . . . . . . . . . . . . . .	Text   	 si
TargetMsg  . . . . . . . . . . . . . .	L Near	 0000	  _TEXT	External
Terminate  . . . . . . . . . . . . . .	L Near	 0000	  _TEXT	External
TheMsgBh . . . . . . . . . . . . . . .	Text   	 bh
Then$$ . . . . . . . . . . . . . . . .	L Near	 0000	  _TEXT	External
ToDsSiCx . . . . . . . . . . . . . . .	L Near	 0000	  _TEXT	External
ToFindDx . . . . . . . . . . . . . . .	Text   	 dx
ToFindLenAx  . . . . . . . . . . . . .	Text   	 ax
ToWholeEbx . . . . . . . . . . . . . .	L Near	 0000	  _TEXT	External
TokNowCh . . . . . . . . . . . . . . .	Text   	 ch
TokNumAh . . . . . . . . . . . . . . .	Text   	 ah
TrEvRet  . . . . . . . . . . . . . . .	L Near	 036C	  _TEXT	
TraceEvent$$ . . . . . . . . . . . . .	L Near	 0293	  _TEXT	Public
TraceEventX  . . . . . . . . . . . . .	L Near	 02AA	  _TEXT	Public
Trial  . . . . . . . . . . . . . . . .	Number	 0000h	 
UpStack  . . . . . . . . . . . . . . .	L Near	 0000	  _TEXT	External
UpperFirstAh . . . . . . . . . . . . .	L Near	 0000	  _TEXT	External
V00  . . . . . . . . . . . . . . . . .	Text   	 (Vshape ptr[bp+di-2*$StrideV])
V0 . . . . . . . . . . . . . . . . . .	Text   	 (Vshape ptr[bp+di-$StrideV])
V2 . . . . . . . . . . . . . . . . . .	Text   	 (Vshape ptr[bp+di+$StrideV])
V3 . . . . . . . . . . . . . . . . . .	Text   	 (Vshape ptr[bp+di+2*$StrideV])
V4 . . . . . . . . . . . . . . . . . .	Text   	 (Vshape ptr[bp+di+3*$StrideV])
VasDsSiCx  . . . . . . . . . . . . . .	L Near	 0000	  _TEXT	External
Vbxe . . . . . . . . . . . . . . . . .	Text   	 es:(Vshape ptr[bx])
Vbxf2  . . . . . . . . . . . . . . . .	Text   	 fs:(Vshape ptr[bx+$StrideV])
Vbxf . . . . . . . . . . . . . . . . .	Text   	 fs:(Vshape ptr[bx])
Vbxs . . . . . . . . . . . . . . . . .	Text   	 ss:(Vshape ptr[bx])
Vbxt . . . . . . . . . . . . . . . . .	Text   	 fs:(Vshape ptr[bx-$CaseTarget])
Vbx  . . . . . . . . . . . . . . . . .	Text   	 ds:(Vshape ptr[bx])
Vdid . . . . . . . . . . . . . . . . .	Text   	 ds:(Vshape ptr[di])
Ve . . . . . . . . . . . . . . . . . .	Text   	 es:(Vshape ptr[bp])
Vf . . . . . . . . . . . . . . . . . .	Text   	 fs:(Vshape ptr[bp])
Vsid . . . . . . . . . . . . . . . . .	Text   	 ds:(Vshape ptr[si])
Vsif . . . . . . . . . . . . . . . . .	Text   	 fs:(Vshape ptr[si])
Vsi  . . . . . . . . . . . . . . . . .	Text   	 (Vshape ptr[bp+si])
V  . . . . . . . . . . . . . . . . . .	Text   	 (Vshape ptr[bp+di])
Wptr . . . . . . . . . . . . . . . . .	Text   	 word ptr
XCycle . . . . . . . . . . . . . . . .	L Near	 0000	  _TEXT	External
Ycx2 . . . . . . . . . . . . . . . . .	Text   	 (Yshape ptr cs:[2*ecx+ebp])
Ysi  . . . . . . . . . . . . . . . . .	Text   	 (Yshape ptr cs:[si])
Y  . . . . . . . . . . . . . . . . . .	Text   	 (Yshape ptr cs:[bp])
Zero$$ . . . . . . . . . . . . . . . .	L Near	 0000	  _TEXT	External
ZeroBp . . . . . . . . . . . . . . . .	Text   	 bp
Zero . . . . . . . . . . . . . . . . .	Number	 00B3h	 
ZoneNumerics . . . . . . . . . . . . .	L Near	 0000	  _TEXT	External
ZoneToLevel  . . . . . . . . . . . . .	L Near	 0000	  _TEXT	External
Z  . . . . . . . . . . . . . . . . . .	Text   	 (Zshape ptr[bp])
_Eq  . . . . . . . . . . . . . . . . .	Number	 00CDh	 
_Exists  . . . . . . . . . . . . . . .	Number	 00C7h	 
_Ge  . . . . . . . . . . . . . . . . .	Number	 00D5h	 
_Gt  . . . . . . . . . . . . . . . . .	Number	 00D7h	 
_IterCV  . . . . . . . . . . . . . . .	Number	 00C5h	 
_Jump  . . . . . . . . . . . . . . . .	Number	 00CBh	 
_Le  . . . . . . . . . . . . . . . . .	Number	 00D3h	 
_Lt  . . . . . . . . . . . . . . . . .	Number	 00D1h	 
_Ne  . . . . . . . . . . . . . . . . .	Number	 00CFh	 
_RetBc . . . . . . . . . . . . . . . .	Number	 00BFh	 
_RetB  . . . . . . . . . . . . . . . .	Number	 00C1h	 
_RetF  . . . . . . . . . . . . . . . .	Number	 00C3h	 
_Seq . . . . . . . . . . . . . . . . .	Number	 00D9h	 
_Slt . . . . . . . . . . . . . . . . .	Number	 00DDh	 
_Sne . . . . . . . . . . . . . . . . .	Number	 00DBh	 
_Then  . . . . . . . . . . . . . . . .	Number	 00C9h	 
is . . . . . . . . . . . . . . . . . .	Text   	 textequ

	   0 Warnings
	   0 Errors
